
analysis:     file format elf64-x86-64


Disassembly of section .init:

0000000000401d90 <_init>:
  401d90:	48 83 ec 08          	sub    $0x8,%rsp
  401d94:	48 8b 05 65 85 21 00 	mov    0x218565(%rip),%rax        # 61a300 <_DYNAMIC+0x210>
  401d9b:	48 85 c0             	test   %rax,%rax
  401d9e:	74 05                	je     401da5 <_init+0x15>
  401da0:	e8 db 00 00 00       	callq  401e80 <__gmon_start__@plt>
  401da5:	48 83 c4 08          	add    $0x8,%rsp
  401da9:	c3                   	retq   

Disassembly of section .plt:

0000000000401db0 <_ZSt20__throw_length_errorPKc@plt-0x10>:
  401db0:	ff 35 5a 85 21 00    	pushq  0x21855a(%rip)        # 61a310 <_GLOBAL_OFFSET_TABLE_+0x8>
  401db6:	ff 25 5c 85 21 00    	jmpq   *0x21855c(%rip)        # 61a318 <_GLOBAL_OFFSET_TABLE_+0x10>
  401dbc:	0f 1f 40 00          	nopl   0x0(%rax)

0000000000401dc0 <_ZSt20__throw_length_errorPKc@plt>:
  401dc0:	ff 25 5a 85 21 00    	jmpq   *0x21855a(%rip)        # 61a320 <_GLOBAL_OFFSET_TABLE_+0x18>
  401dc6:	68 00 00 00 00       	pushq  $0x0
  401dcb:	e9 e0 ff ff ff       	jmpq   401db0 <_init+0x20>

0000000000401dd0 <_ZNSolsEd@plt>:
  401dd0:	ff 25 52 85 21 00    	jmpq   *0x218552(%rip)        # 61a328 <_GLOBAL_OFFSET_TABLE_+0x20>
  401dd6:	68 01 00 00 00       	pushq  $0x1
  401ddb:	e9 d0 ff ff ff       	jmpq   401db0 <_init+0x20>

0000000000401de0 <_ZNSsaSEPKc@plt>:
  401de0:	ff 25 4a 85 21 00    	jmpq   *0x21854a(%rip)        # 61a330 <_GLOBAL_OFFSET_TABLE_+0x28>
  401de6:	68 02 00 00 00       	pushq  $0x2
  401deb:	e9 c0 ff ff ff       	jmpq   401db0 <_init+0x20>

0000000000401df0 <_ZNSsC1Ev@plt>:
  401df0:	ff 25 42 85 21 00    	jmpq   *0x218542(%rip)        # 61a338 <_GLOBAL_OFFSET_TABLE_+0x30>
  401df6:	68 03 00 00 00       	pushq  $0x3
  401dfb:	e9 b0 ff ff ff       	jmpq   401db0 <_init+0x20>

0000000000401e00 <printf@plt>:
  401e00:	ff 25 3a 85 21 00    	jmpq   *0x21853a(%rip)        # 61a340 <_GLOBAL_OFFSET_TABLE_+0x38>
  401e06:	68 04 00 00 00       	pushq  $0x4
  401e0b:	e9 a0 ff ff ff       	jmpq   401db0 <_init+0x20>

0000000000401e10 <_ZNSt18basic_stringstreamIcSt11char_traitsIcESaIcEEC1ERKSsSt13_Ios_Openmode@plt>:
  401e10:	ff 25 32 85 21 00    	jmpq   *0x218532(%rip)        # 61a348 <_GLOBAL_OFFSET_TABLE_+0x40>
  401e16:	68 05 00 00 00       	pushq  $0x5
  401e1b:	e9 90 ff ff ff       	jmpq   401db0 <_init+0x20>

0000000000401e20 <_ZNSt14basic_ifstreamIcSt11char_traitsIcEE5closeEv@plt>:
  401e20:	ff 25 2a 85 21 00    	jmpq   *0x21852a(%rip)        # 61a350 <_GLOBAL_OFFSET_TABLE_+0x48>
  401e26:	68 06 00 00 00       	pushq  $0x6
  401e2b:	e9 80 ff ff ff       	jmpq   401db0 <_init+0x20>

0000000000401e30 <_ZNSolsEi@plt>:
  401e30:	ff 25 22 85 21 00    	jmpq   *0x218522(%rip)        # 61a358 <_GLOBAL_OFFSET_TABLE_+0x50>
  401e36:	68 07 00 00 00       	pushq  $0x7
  401e3b:	e9 70 ff ff ff       	jmpq   401db0 <_init+0x20>

0000000000401e40 <_ZNSspLEPKc@plt>:
  401e40:	ff 25 1a 85 21 00    	jmpq   *0x21851a(%rip)        # 61a360 <_GLOBAL_OFFSET_TABLE_+0x58>
  401e46:	68 08 00 00 00       	pushq  $0x8
  401e4b:	e9 60 ff ff ff       	jmpq   401db0 <_init+0x20>

0000000000401e50 <memset@plt>:
  401e50:	ff 25 12 85 21 00    	jmpq   *0x218512(%rip)        # 61a368 <_GLOBAL_OFFSET_TABLE_+0x60>
  401e56:	68 09 00 00 00       	pushq  $0x9
  401e5b:	e9 50 ff ff ff       	jmpq   401db0 <_init+0x20>

0000000000401e60 <_ZNSspLEc@plt>:
  401e60:	ff 25 0a 85 21 00    	jmpq   *0x21850a(%rip)        # 61a370 <_GLOBAL_OFFSET_TABLE_+0x68>
  401e66:	68 0a 00 00 00       	pushq  $0xa
  401e6b:	e9 40 ff ff ff       	jmpq   401db0 <_init+0x20>

0000000000401e70 <_ZSt7getlineIcSt11char_traitsIcESaIcEERSt13basic_istreamIT_T0_ES7_RSbIS4_S5_T1_E@plt>:
  401e70:	ff 25 02 85 21 00    	jmpq   *0x218502(%rip)        # 61a378 <_GLOBAL_OFFSET_TABLE_+0x70>
  401e76:	68 0b 00 00 00       	pushq  $0xb
  401e7b:	e9 30 ff ff ff       	jmpq   401db0 <_init+0x20>

0000000000401e80 <__gmon_start__@plt>:
  401e80:	ff 25 fa 84 21 00    	jmpq   *0x2184fa(%rip)        # 61a380 <_GLOBAL_OFFSET_TABLE_+0x78>
  401e86:	68 0c 00 00 00       	pushq  $0xc
  401e8b:	e9 20 ff ff ff       	jmpq   401db0 <_init+0x20>

0000000000401e90 <_ZNKSs5c_strEv@plt>:
  401e90:	ff 25 f2 84 21 00    	jmpq   *0x2184f2(%rip)        # 61a388 <_GLOBAL_OFFSET_TABLE_+0x80>
  401e96:	68 0d 00 00 00       	pushq  $0xd
  401e9b:	e9 10 ff ff ff       	jmpq   401db0 <_init+0x20>

0000000000401ea0 <_Znam@plt>:
  401ea0:	ff 25 ea 84 21 00    	jmpq   *0x2184ea(%rip)        # 61a390 <_GLOBAL_OFFSET_TABLE_+0x88>
  401ea6:	68 0e 00 00 00       	pushq  $0xe
  401eab:	e9 00 ff ff ff       	jmpq   401db0 <_init+0x20>

0000000000401eb0 <_ZdlPv@plt>:
  401eb0:	ff 25 e2 84 21 00    	jmpq   *0x2184e2(%rip)        # 61a398 <_GLOBAL_OFFSET_TABLE_+0x90>
  401eb6:	68 0f 00 00 00       	pushq  $0xf
  401ebb:	e9 f0 fe ff ff       	jmpq   401db0 <_init+0x20>

0000000000401ec0 <exit@plt>:
  401ec0:	ff 25 da 84 21 00    	jmpq   *0x2184da(%rip)        # 61a3a0 <_GLOBAL_OFFSET_TABLE_+0x98>
  401ec6:	68 10 00 00 00       	pushq  $0x10
  401ecb:	e9 e0 fe ff ff       	jmpq   401db0 <_init+0x20>

0000000000401ed0 <__cxa_rethrow@plt>:
  401ed0:	ff 25 d2 84 21 00    	jmpq   *0x2184d2(%rip)        # 61a3a8 <_GLOBAL_OFFSET_TABLE_+0xa0>
  401ed6:	68 11 00 00 00       	pushq  $0x11
  401edb:	e9 d0 fe ff ff       	jmpq   401db0 <_init+0x20>

0000000000401ee0 <_ZNKSs4sizeEv@plt>:
  401ee0:	ff 25 ca 84 21 00    	jmpq   *0x2184ca(%rip)        # 61a3b0 <_GLOBAL_OFFSET_TABLE_+0xa8>
  401ee6:	68 12 00 00 00       	pushq  $0x12
  401eeb:	e9 c0 fe ff ff       	jmpq   401db0 <_init+0x20>

0000000000401ef0 <_ZNKSs12find_last_ofEcm@plt>:
  401ef0:	ff 25 c2 84 21 00    	jmpq   *0x2184c2(%rip)        # 61a3b8 <_GLOBAL_OFFSET_TABLE_+0xb0>
  401ef6:	68 13 00 00 00       	pushq  $0x13
  401efb:	e9 b0 fe ff ff       	jmpq   401db0 <_init+0x20>

0000000000401f00 <__cxa_throw_bad_array_new_length@plt>:
  401f00:	ff 25 ba 84 21 00    	jmpq   *0x2184ba(%rip)        # 61a3c0 <_GLOBAL_OFFSET_TABLE_+0xb8>
  401f06:	68 14 00 00 00       	pushq  $0x14
  401f0b:	e9 a0 fe ff ff       	jmpq   401db0 <_init+0x20>

0000000000401f10 <_ZNSt8ios_base4InitC1Ev@plt>:
  401f10:	ff 25 b2 84 21 00    	jmpq   *0x2184b2(%rip)        # 61a3c8 <_GLOBAL_OFFSET_TABLE_+0xc0>
  401f16:	68 15 00 00 00       	pushq  $0x15
  401f1b:	e9 90 fe ff ff       	jmpq   401db0 <_init+0x20>

0000000000401f20 <__libc_start_main@plt>:
  401f20:	ff 25 aa 84 21 00    	jmpq   *0x2184aa(%rip)        # 61a3d0 <_GLOBAL_OFFSET_TABLE_+0xc8>
  401f26:	68 16 00 00 00       	pushq  $0x16
  401f2b:	e9 80 fe ff ff       	jmpq   401db0 <_init+0x20>

0000000000401f30 <_ZSt18_Rb_tree_decrementPSt18_Rb_tree_node_base@plt>:
  401f30:	ff 25 a2 84 21 00    	jmpq   *0x2184a2(%rip)        # 61a3d8 <_GLOBAL_OFFSET_TABLE_+0xd0>
  401f36:	68 17 00 00 00       	pushq  $0x17
  401f3b:	e9 70 fe ff ff       	jmpq   401db0 <_init+0x20>

0000000000401f40 <_ZNKSs7compareERKSs@plt>:
  401f40:	ff 25 9a 84 21 00    	jmpq   *0x21849a(%rip)        # 61a3e0 <_GLOBAL_OFFSET_TABLE_+0xd8>
  401f46:	68 18 00 00 00       	pushq  $0x18
  401f4b:	e9 60 fe ff ff       	jmpq   401db0 <_init+0x20>

0000000000401f50 <_ZNSsC1ERKSs@plt>:
  401f50:	ff 25 92 84 21 00    	jmpq   *0x218492(%rip)        # 61a3e8 <_GLOBAL_OFFSET_TABLE_+0xe0>
  401f56:	68 19 00 00 00       	pushq  $0x19
  401f5b:	e9 50 fe ff ff       	jmpq   401db0 <_init+0x20>

0000000000401f60 <__cxa_atexit@plt>:
  401f60:	ff 25 8a 84 21 00    	jmpq   *0x21848a(%rip)        # 61a3f0 <_GLOBAL_OFFSET_TABLE_+0xe8>
  401f66:	68 1a 00 00 00       	pushq  $0x1a
  401f6b:	e9 40 fe ff ff       	jmpq   401db0 <_init+0x20>

0000000000401f70 <_ZNKSs6lengthEv@plt>:
  401f70:	ff 25 82 84 21 00    	jmpq   *0x218482(%rip)        # 61a3f8 <_GLOBAL_OFFSET_TABLE_+0xf0>
  401f76:	68 1b 00 00 00       	pushq  $0x1b
  401f7b:	e9 30 fe ff ff       	jmpq   401db0 <_init+0x20>

0000000000401f80 <_ZNSt8ios_base4InitD1Ev@plt>:
  401f80:	ff 25 7a 84 21 00    	jmpq   *0x21847a(%rip)        # 61a400 <_GLOBAL_OFFSET_TABLE_+0xf8>
  401f86:	68 1c 00 00 00       	pushq  $0x1c
  401f8b:	e9 20 fe ff ff       	jmpq   401db0 <_init+0x20>

0000000000401f90 <_ZStlsISt11char_traitsIcEERSt13basic_ostreamIcT_ES5_PKc@plt>:
  401f90:	ff 25 72 84 21 00    	jmpq   *0x218472(%rip)        # 61a408 <_GLOBAL_OFFSET_TABLE_+0x100>
  401f96:	68 1d 00 00 00       	pushq  $0x1d
  401f9b:	e9 10 fe ff ff       	jmpq   401db0 <_init+0x20>

0000000000401fa0 <_ZNKSs5rfindEPKcm@plt>:
  401fa0:	ff 25 6a 84 21 00    	jmpq   *0x21846a(%rip)        # 61a410 <_GLOBAL_OFFSET_TABLE_+0x108>
  401fa6:	68 1e 00 00 00       	pushq  $0x1e
  401fab:	e9 00 fe ff ff       	jmpq   401db0 <_init+0x20>

0000000000401fb0 <_ZNSsD1Ev@plt>:
  401fb0:	ff 25 62 84 21 00    	jmpq   *0x218462(%rip)        # 61a418 <_GLOBAL_OFFSET_TABLE_+0x110>
  401fb6:	68 1f 00 00 00       	pushq  $0x1f
  401fbb:	e9 f0 fd ff ff       	jmpq   401db0 <_init+0x20>

0000000000401fc0 <_ZNSspLERKSs@plt>:
  401fc0:	ff 25 5a 84 21 00    	jmpq   *0x21845a(%rip)        # 61a420 <_GLOBAL_OFFSET_TABLE_+0x118>
  401fc6:	68 20 00 00 00       	pushq  $0x20
  401fcb:	e9 e0 fd ff ff       	jmpq   401db0 <_init+0x20>

0000000000401fd0 <_ZNSolsEm@plt>:
  401fd0:	ff 25 52 84 21 00    	jmpq   *0x218452(%rip)        # 61a428 <_GLOBAL_OFFSET_TABLE_+0x120>
  401fd6:	68 21 00 00 00       	pushq  $0x21
  401fdb:	e9 d0 fd ff ff       	jmpq   401db0 <_init+0x20>

0000000000401fe0 <_ZNKSs7compareEPKc@plt>:
  401fe0:	ff 25 4a 84 21 00    	jmpq   *0x21844a(%rip)        # 61a430 <_GLOBAL_OFFSET_TABLE_+0x128>
  401fe6:	68 22 00 00 00       	pushq  $0x22
  401feb:	e9 c0 fd ff ff       	jmpq   401db0 <_init+0x20>

0000000000401ff0 <_ZNSsC1EPKcRKSaIcE@plt>:
  401ff0:	ff 25 42 84 21 00    	jmpq   *0x218442(%rip)        # 61a438 <_GLOBAL_OFFSET_TABLE_+0x130>
  401ff6:	68 23 00 00 00       	pushq  $0x23
  401ffb:	e9 b0 fd ff ff       	jmpq   401db0 <_init+0x20>

0000000000402000 <_ZNSt14basic_ifstreamIcSt11char_traitsIcEED1Ev@plt>:
  402000:	ff 25 3a 84 21 00    	jmpq   *0x21843a(%rip)        # 61a440 <_GLOBAL_OFFSET_TABLE_+0x138>
  402006:	68 24 00 00 00       	pushq  $0x24
  40200b:	e9 a0 fd ff ff       	jmpq   401db0 <_init+0x20>

0000000000402010 <sigaction@plt>:
  402010:	ff 25 32 84 21 00    	jmpq   *0x218432(%rip)        # 61a448 <_GLOBAL_OFFSET_TABLE_+0x140>
  402016:	68 25 00 00 00       	pushq  $0x25
  40201b:	e9 90 fd ff ff       	jmpq   401db0 <_init+0x20>

0000000000402020 <_ZNSsixEm@plt>:
  402020:	ff 25 2a 84 21 00    	jmpq   *0x21842a(%rip)        # 61a450 <_GLOBAL_OFFSET_TABLE_+0x148>
  402026:	68 26 00 00 00       	pushq  $0x26
  40202b:	e9 80 fd ff ff       	jmpq   401db0 <_init+0x20>

0000000000402030 <_ZNSt14basic_ofstreamIcSt11char_traitsIcEED1Ev@plt>:
  402030:	ff 25 22 84 21 00    	jmpq   *0x218422(%rip)        # 61a458 <_GLOBAL_OFFSET_TABLE_+0x150>
  402036:	68 27 00 00 00       	pushq  $0x27
  40203b:	e9 70 fd ff ff       	jmpq   401db0 <_init+0x20>

0000000000402040 <_ZNKSt9basic_iosIcSt11char_traitsIcEE3eofEv@plt>:
  402040:	ff 25 1a 84 21 00    	jmpq   *0x21841a(%rip)        # 61a460 <_GLOBAL_OFFSET_TABLE_+0x158>
  402046:	68 28 00 00 00       	pushq  $0x28
  40204b:	e9 60 fd ff ff       	jmpq   401db0 <_init+0x20>

0000000000402050 <_ZNSt14basic_ofstreamIcSt11char_traitsIcEE5closeEv@plt>:
  402050:	ff 25 12 84 21 00    	jmpq   *0x218412(%rip)        # 61a468 <_GLOBAL_OFFSET_TABLE_+0x160>
  402056:	68 29 00 00 00       	pushq  $0x29
  40205b:	e9 50 fd ff ff       	jmpq   401db0 <_init+0x20>

0000000000402060 <_ZNSt19basic_istringstreamIcSt11char_traitsIcESaIcEED1Ev@plt>:
  402060:	ff 25 0a 84 21 00    	jmpq   *0x21840a(%rip)        # 61a470 <_GLOBAL_OFFSET_TABLE_+0x168>
  402066:	68 2a 00 00 00       	pushq  $0x2a
  40206b:	e9 40 fd ff ff       	jmpq   401db0 <_init+0x20>

0000000000402070 <memmove@plt>:
  402070:	ff 25 02 84 21 00    	jmpq   *0x218402(%rip)        # 61a478 <_GLOBAL_OFFSET_TABLE_+0x170>
  402076:	68 2b 00 00 00       	pushq  $0x2b
  40207b:	e9 30 fd ff ff       	jmpq   401db0 <_init+0x20>

0000000000402080 <_ZSt29_Rb_tree_insert_and_rebalancebPSt18_Rb_tree_node_baseS0_RS_@plt>:
  402080:	ff 25 fa 83 21 00    	jmpq   *0x2183fa(%rip)        # 61a480 <_GLOBAL_OFFSET_TABLE_+0x178>
  402086:	68 2c 00 00 00       	pushq  $0x2c
  40208b:	e9 20 fd ff ff       	jmpq   401db0 <_init+0x20>

0000000000402090 <_ZStlsIcSt11char_traitsIcESaIcEERSt13basic_ostreamIT_T0_ES7_RKSbIS4_S5_T1_E@plt>:
  402090:	ff 25 f2 83 21 00    	jmpq   *0x2183f2(%rip)        # 61a488 <_GLOBAL_OFFSET_TABLE_+0x180>
  402096:	68 2d 00 00 00       	pushq  $0x2d
  40209b:	e9 10 fd ff ff       	jmpq   401db0 <_init+0x20>

00000000004020a0 <_ZNSt14basic_ofstreamIcSt11char_traitsIcEE4openEPKcSt13_Ios_Openmode@plt>:
  4020a0:	ff 25 ea 83 21 00    	jmpq   *0x2183ea(%rip)        # 61a490 <_GLOBAL_OFFSET_TABLE_+0x188>
  4020a6:	68 2e 00 00 00       	pushq  $0x2e
  4020ab:	e9 00 fd ff ff       	jmpq   401db0 <_init+0x20>

00000000004020b0 <_ZNSaIcED1Ev@plt>:
  4020b0:	ff 25 e2 83 21 00    	jmpq   *0x2183e2(%rip)        # 61a498 <_GLOBAL_OFFSET_TABLE_+0x190>
  4020b6:	68 2f 00 00 00       	pushq  $0x2f
  4020bb:	e9 f0 fc ff ff       	jmpq   401db0 <_init+0x20>

00000000004020c0 <_ZNSirsERi@plt>:
  4020c0:	ff 25 da 83 21 00    	jmpq   *0x2183da(%rip)        # 61a4a0 <_GLOBAL_OFFSET_TABLE_+0x198>
  4020c6:	68 30 00 00 00       	pushq  $0x30
  4020cb:	e9 e0 fc ff ff       	jmpq   401db0 <_init+0x20>

00000000004020d0 <_ZNKSsixEm@plt>:
  4020d0:	ff 25 d2 83 21 00    	jmpq   *0x2183d2(%rip)        # 61a4a8 <_GLOBAL_OFFSET_TABLE_+0x1a0>
  4020d6:	68 31 00 00 00       	pushq  $0x31
  4020db:	e9 d0 fc ff ff       	jmpq   401db0 <_init+0x20>

00000000004020e0 <_ZdaPv@plt>:
  4020e0:	ff 25 ca 83 21 00    	jmpq   *0x2183ca(%rip)        # 61a4b0 <_GLOBAL_OFFSET_TABLE_+0x1a8>
  4020e6:	68 32 00 00 00       	pushq  $0x32
  4020eb:	e9 c0 fc ff ff       	jmpq   401db0 <_init+0x20>

00000000004020f0 <_ZNSs6appendEPKc@plt>:
  4020f0:	ff 25 c2 83 21 00    	jmpq   *0x2183c2(%rip)        # 61a4b8 <_GLOBAL_OFFSET_TABLE_+0x1b0>
  4020f6:	68 33 00 00 00       	pushq  $0x33
  4020fb:	e9 b0 fc ff ff       	jmpq   401db0 <_init+0x20>

0000000000402100 <_ZNSt14basic_ifstreamIcSt11char_traitsIcEEC1EPKcSt13_Ios_Openmode@plt>:
  402100:	ff 25 ba 83 21 00    	jmpq   *0x2183ba(%rip)        # 61a4c0 <_GLOBAL_OFFSET_TABLE_+0x1b8>
  402106:	68 34 00 00 00       	pushq  $0x34
  40210b:	e9 a0 fc ff ff       	jmpq   401db0 <_init+0x20>

0000000000402110 <_ZNSolsEPFRSoS_E@plt>:
  402110:	ff 25 b2 83 21 00    	jmpq   *0x2183b2(%rip)        # 61a4c8 <_GLOBAL_OFFSET_TABLE_+0x1c0>
  402116:	68 35 00 00 00       	pushq  $0x35
  40211b:	e9 90 fc ff ff       	jmpq   401db0 <_init+0x20>

0000000000402120 <difftime@plt>:
  402120:	ff 25 aa 83 21 00    	jmpq   *0x2183aa(%rip)        # 61a4d0 <_GLOBAL_OFFSET_TABLE_+0x1c8>
  402126:	68 36 00 00 00       	pushq  $0x36
  40212b:	e9 80 fc ff ff       	jmpq   401db0 <_init+0x20>

0000000000402130 <_ZNSt19basic_istringstreamIcSt11char_traitsIcESaIcEEC1ERKSsSt13_Ios_Openmode@plt>:
  402130:	ff 25 a2 83 21 00    	jmpq   *0x2183a2(%rip)        # 61a4d8 <_GLOBAL_OFFSET_TABLE_+0x1d0>
  402136:	68 37 00 00 00       	pushq  $0x37
  40213b:	e9 70 fc ff ff       	jmpq   401db0 <_init+0x20>

0000000000402140 <_ZSt18_Rb_tree_incrementPSt18_Rb_tree_node_base@plt>:
  402140:	ff 25 9a 83 21 00    	jmpq   *0x21839a(%rip)        # 61a4e0 <_GLOBAL_OFFSET_TABLE_+0x1d8>
  402146:	68 38 00 00 00       	pushq  $0x38
  40214b:	e9 60 fc ff ff       	jmpq   401db0 <_init+0x20>

0000000000402150 <_ZNSt14basic_ofstreamIcSt11char_traitsIcEEC1Ev@plt>:
  402150:	ff 25 92 83 21 00    	jmpq   *0x218392(%rip)        # 61a4e8 <_GLOBAL_OFFSET_TABLE_+0x1e0>
  402156:	68 39 00 00 00       	pushq  $0x39
  40215b:	e9 50 fc ff ff       	jmpq   401db0 <_init+0x20>

0000000000402160 <__cxa_end_catch@plt>:
  402160:	ff 25 8a 83 21 00    	jmpq   *0x21838a(%rip)        # 61a4f0 <_GLOBAL_OFFSET_TABLE_+0x1e8>
  402166:	68 3a 00 00 00       	pushq  $0x3a
  40216b:	e9 40 fc ff ff       	jmpq   401db0 <_init+0x20>

0000000000402170 <_ZSt17__throw_bad_allocv@plt>:
  402170:	ff 25 82 83 21 00    	jmpq   *0x218382(%rip)        # 61a4f8 <_GLOBAL_OFFSET_TABLE_+0x1f0>
  402176:	68 3b 00 00 00       	pushq  $0x3b
  40217b:	e9 30 fc ff ff       	jmpq   401db0 <_init+0x20>

0000000000402180 <sigemptyset@plt>:
  402180:	ff 25 7a 83 21 00    	jmpq   *0x21837a(%rip)        # 61a500 <_GLOBAL_OFFSET_TABLE_+0x1f8>
  402186:	68 3c 00 00 00       	pushq  $0x3c
  40218b:	e9 20 fc ff ff       	jmpq   401db0 <_init+0x20>

0000000000402190 <_ZSt4endlIcSt11char_traitsIcEERSt13basic_ostreamIT_T0_ES6_@plt>:
  402190:	ff 25 72 83 21 00    	jmpq   *0x218372(%rip)        # 61a508 <_GLOBAL_OFFSET_TABLE_+0x200>
  402196:	68 3d 00 00 00       	pushq  $0x3d
  40219b:	e9 10 fc ff ff       	jmpq   401db0 <_init+0x20>

00000000004021a0 <__cxa_begin_catch@plt>:
  4021a0:	ff 25 6a 83 21 00    	jmpq   *0x21836a(%rip)        # 61a510 <_GLOBAL_OFFSET_TABLE_+0x208>
  4021a6:	68 3e 00 00 00       	pushq  $0x3e
  4021ab:	e9 00 fc ff ff       	jmpq   401db0 <_init+0x20>

00000000004021b0 <_ZNSt18basic_stringstreamIcSt11char_traitsIcESaIcEED1Ev@plt>:
  4021b0:	ff 25 62 83 21 00    	jmpq   *0x218362(%rip)        # 61a518 <_GLOBAL_OFFSET_TABLE_+0x210>
  4021b6:	68 3f 00 00 00       	pushq  $0x3f
  4021bb:	e9 f0 fb ff ff       	jmpq   401db0 <_init+0x20>

00000000004021c0 <_ZNSaIcEC1Ev@plt>:
  4021c0:	ff 25 5a 83 21 00    	jmpq   *0x21835a(%rip)        # 61a520 <_GLOBAL_OFFSET_TABLE_+0x218>
  4021c6:	68 40 00 00 00       	pushq  $0x40
  4021cb:	e9 e0 fb ff ff       	jmpq   401db0 <_init+0x20>

00000000004021d0 <__gxx_personality_v0@plt>:
  4021d0:	ff 25 52 83 21 00    	jmpq   *0x218352(%rip)        # 61a528 <_GLOBAL_OFFSET_TABLE_+0x220>
  4021d6:	68 41 00 00 00       	pushq  $0x41
  4021db:	e9 d0 fb ff ff       	jmpq   401db0 <_init+0x20>

00000000004021e0 <_ZNSsC1EOSs@plt>:
  4021e0:	ff 25 4a 83 21 00    	jmpq   *0x21834a(%rip)        # 61a530 <_GLOBAL_OFFSET_TABLE_+0x228>
  4021e6:	68 42 00 00 00       	pushq  $0x42
  4021eb:	e9 c0 fb ff ff       	jmpq   401db0 <_init+0x20>

00000000004021f0 <_Znwm@plt>:
  4021f0:	ff 25 42 83 21 00    	jmpq   *0x218342(%rip)        # 61a538 <_GLOBAL_OFFSET_TABLE_+0x230>
  4021f6:	68 43 00 00 00       	pushq  $0x43
  4021fb:	e9 b0 fb ff ff       	jmpq   401db0 <_init+0x20>

0000000000402200 <_Unwind_Resume@plt>:
  402200:	ff 25 3a 83 21 00    	jmpq   *0x21833a(%rip)        # 61a540 <_GLOBAL_OFFSET_TABLE_+0x238>
  402206:	68 44 00 00 00       	pushq  $0x44
  40220b:	e9 a0 fb ff ff       	jmpq   401db0 <_init+0x20>

0000000000402210 <_ZNSsaSERKSs@plt>:
  402210:	ff 25 32 83 21 00    	jmpq   *0x218332(%rip)        # 61a548 <_GLOBAL_OFFSET_TABLE_+0x240>
  402216:	68 45 00 00 00       	pushq  $0x45
  40221b:	e9 90 fb ff ff       	jmpq   401db0 <_init+0x20>

0000000000402220 <_ZNSs6appendERKSs@plt>:
  402220:	ff 25 2a 83 21 00    	jmpq   *0x21832a(%rip)        # 61a550 <_GLOBAL_OFFSET_TABLE_+0x248>
  402226:	68 46 00 00 00       	pushq  $0x46
  40222b:	e9 80 fb ff ff       	jmpq   401db0 <_init+0x20>

0000000000402230 <_ZNSt14basic_ifstreamIcSt11char_traitsIcEE7is_openEv@plt>:
  402230:	ff 25 22 83 21 00    	jmpq   *0x218322(%rip)        # 61a558 <_GLOBAL_OFFSET_TABLE_+0x250>
  402236:	68 47 00 00 00       	pushq  $0x47
  40223b:	e9 70 fb ff ff       	jmpq   401db0 <_init+0x20>

0000000000402240 <time@plt>:
  402240:	ff 25 1a 83 21 00    	jmpq   *0x21831a(%rip)        # 61a560 <_GLOBAL_OFFSET_TABLE_+0x258>
  402246:	68 48 00 00 00       	pushq  $0x48
  40224b:	e9 60 fb ff ff       	jmpq   401db0 <_init+0x20>

0000000000402250 <_ZNSirsERf@plt>:
  402250:	ff 25 12 83 21 00    	jmpq   *0x218312(%rip)        # 61a568 <_GLOBAL_OFFSET_TABLE_+0x260>
  402256:	68 49 00 00 00       	pushq  $0x49
  40225b:	e9 50 fb ff ff       	jmpq   401db0 <_init+0x20>

Disassembly of section .text:

0000000000402260 <_start>:
  402260:	31 ed                	xor    %ebp,%ebp
  402262:	49 89 d1             	mov    %rdx,%r9
  402265:	5e                   	pop    %rsi
  402266:	48 89 e2             	mov    %rsp,%rdx
  402269:	48 83 e4 f0          	and    $0xfffffffffffffff0,%rsp
  40226d:	50                   	push   %rax
  40226e:	54                   	push   %rsp
  40226f:	49 c7 c0 d0 1a 41 00 	mov    $0x411ad0,%r8
  402276:	48 c7 c1 60 1a 41 00 	mov    $0x411a60,%rcx
  40227d:	48 c7 c7 b1 15 41 00 	mov    $0x4115b1,%rdi
  402284:	e8 97 fc ff ff       	callq  401f20 <__libc_start_main@plt>
  402289:	f4                   	hlt    
  40228a:	66 0f 1f 44 00 00    	nopw   0x0(%rax,%rax,1)

0000000000402290 <deregister_tm_clones>:
  402290:	b8 87 a5 61 00       	mov    $0x61a587,%eax
  402295:	55                   	push   %rbp
  402296:	48 2d 80 a5 61 00    	sub    $0x61a580,%rax
  40229c:	48 83 f8 0e          	cmp    $0xe,%rax
  4022a0:	48 89 e5             	mov    %rsp,%rbp
  4022a3:	76 1b                	jbe    4022c0 <deregister_tm_clones+0x30>
  4022a5:	b8 00 00 00 00       	mov    $0x0,%eax
  4022aa:	48 85 c0             	test   %rax,%rax
  4022ad:	74 11                	je     4022c0 <deregister_tm_clones+0x30>
  4022af:	5d                   	pop    %rbp
  4022b0:	bf 80 a5 61 00       	mov    $0x61a580,%edi
  4022b5:	ff e0                	jmpq   *%rax
  4022b7:	66 0f 1f 84 00 00 00 	nopw   0x0(%rax,%rax,1)
  4022be:	00 00 
  4022c0:	5d                   	pop    %rbp
  4022c1:	c3                   	retq   
  4022c2:	66 66 66 66 66 2e 0f 	data32 data32 data32 data32 nopw %cs:0x0(%rax,%rax,1)
  4022c9:	1f 84 00 00 00 00 00 

00000000004022d0 <register_tm_clones>:
  4022d0:	be 80 a5 61 00       	mov    $0x61a580,%esi
  4022d5:	55                   	push   %rbp
  4022d6:	48 81 ee 80 a5 61 00 	sub    $0x61a580,%rsi
  4022dd:	48 c1 fe 03          	sar    $0x3,%rsi
  4022e1:	48 89 e5             	mov    %rsp,%rbp
  4022e4:	48 89 f0             	mov    %rsi,%rax
  4022e7:	48 c1 e8 3f          	shr    $0x3f,%rax
  4022eb:	48 01 c6             	add    %rax,%rsi
  4022ee:	48 d1 fe             	sar    %rsi
  4022f1:	74 15                	je     402308 <register_tm_clones+0x38>
  4022f3:	b8 00 00 00 00       	mov    $0x0,%eax
  4022f8:	48 85 c0             	test   %rax,%rax
  4022fb:	74 0b                	je     402308 <register_tm_clones+0x38>
  4022fd:	5d                   	pop    %rbp
  4022fe:	bf 80 a5 61 00       	mov    $0x61a580,%edi
  402303:	ff e0                	jmpq   *%rax
  402305:	0f 1f 00             	nopl   (%rax)
  402308:	5d                   	pop    %rbp
  402309:	c3                   	retq   
  40230a:	66 0f 1f 44 00 00    	nopw   0x0(%rax,%rax,1)

0000000000402310 <__do_global_dtors_aux>:
  402310:	80 3d 39 85 21 00 00 	cmpb   $0x0,0x218539(%rip)        # 61a850 <completed.6597>
  402317:	75 11                	jne    40232a <__do_global_dtors_aux+0x1a>
  402319:	55                   	push   %rbp
  40231a:	48 89 e5             	mov    %rsp,%rbp
  40231d:	e8 6e ff ff ff       	callq  402290 <deregister_tm_clones>
  402322:	5d                   	pop    %rbp
  402323:	c6 05 26 85 21 00 01 	movb   $0x1,0x218526(%rip)        # 61a850 <completed.6597>
  40232a:	f3 c3                	repz retq 
  40232c:	0f 1f 40 00          	nopl   0x0(%rax)

0000000000402330 <frame_dummy>:
  402330:	bf e8 a0 61 00       	mov    $0x61a0e8,%edi
  402335:	48 83 3f 00          	cmpq   $0x0,(%rdi)
  402339:	75 05                	jne    402340 <frame_dummy+0x10>
  40233b:	eb 93                	jmp    4022d0 <register_tm_clones>
  40233d:	0f 1f 00             	nopl   (%rax)
  402340:	b8 00 00 00 00       	mov    $0x0,%eax
  402345:	48 85 c0             	test   %rax,%rax
  402348:	74 f1                	je     40233b <frame_dummy+0xb>
  40234a:	55                   	push   %rbp
  40234b:	48 89 e5             	mov    %rsp,%rbp
  40234e:	ff d0                	callq  *%rax
  402350:	5d                   	pop    %rbp
  402351:	e9 7a ff ff ff       	jmpq   4022d0 <register_tm_clones>

0000000000402356 <_Z8isNumberRKSs>:
  402356:	55                   	push   %rbp
  402357:	48 89 e5             	mov    %rsp,%rbp
  40235a:	53                   	push   %rbx
  40235b:	48 83 ec 28          	sub    $0x28,%rsp
  40235f:	48 89 7d d8          	mov    %rdi,-0x28(%rbp)
  402363:	c7 45 ec 00 00 00 00 	movl   $0x0,-0x14(%rbp)
  40236a:	eb 76                	jmp    4023e2 <_Z8isNumberRKSs+0x8c>
  40236c:	8b 45 ec             	mov    -0x14(%rbp),%eax
  40236f:	48 63 d0             	movslq %eax,%rdx
  402372:	48 8b 45 d8          	mov    -0x28(%rbp),%rax
  402376:	48 89 d6             	mov    %rdx,%rsi
  402379:	48 89 c7             	mov    %rax,%rdi
  40237c:	e8 4f fd ff ff       	callq  4020d0 <_ZNKSsixEm@plt>
  402381:	0f b6 00             	movzbl (%rax),%eax
  402384:	0f be c0             	movsbl %al,%eax
  402387:	83 e8 30             	sub    $0x30,%eax
  40238a:	83 f8 09             	cmp    $0x9,%eax
  40238d:	76 3f                	jbe    4023ce <_Z8isNumberRKSs+0x78>
  40238f:	8b 45 ec             	mov    -0x14(%rbp),%eax
  402392:	48 63 d0             	movslq %eax,%rdx
  402395:	48 8b 45 d8          	mov    -0x28(%rbp),%rax
  402399:	48 89 d6             	mov    %rdx,%rsi
  40239c:	48 89 c7             	mov    %rax,%rdi
  40239f:	e8 2c fd ff ff       	callq  4020d0 <_ZNKSsixEm@plt>
  4023a4:	0f b6 00             	movzbl (%rax),%eax
  4023a7:	3c 2e                	cmp    $0x2e,%al
  4023a9:	74 23                	je     4023ce <_Z8isNumberRKSs+0x78>
  4023ab:	8b 45 ec             	mov    -0x14(%rbp),%eax
  4023ae:	48 63 d0             	movslq %eax,%rdx
  4023b1:	48 8b 45 d8          	mov    -0x28(%rbp),%rax
  4023b5:	48 89 d6             	mov    %rdx,%rsi
  4023b8:	48 89 c7             	mov    %rax,%rdi
  4023bb:	e8 10 fd ff ff       	callq  4020d0 <_ZNKSsixEm@plt>
  4023c0:	0f b6 00             	movzbl (%rax),%eax
  4023c3:	3c 2d                	cmp    $0x2d,%al
  4023c5:	74 07                	je     4023ce <_Z8isNumberRKSs+0x78>
  4023c7:	b8 01 00 00 00       	mov    $0x1,%eax
  4023cc:	eb 05                	jmp    4023d3 <_Z8isNumberRKSs+0x7d>
  4023ce:	b8 00 00 00 00       	mov    $0x0,%eax
  4023d3:	84 c0                	test   %al,%al
  4023d5:	74 07                	je     4023de <_Z8isNumberRKSs+0x88>
  4023d7:	b8 00 00 00 00       	mov    $0x0,%eax
  4023dc:	eb 29                	jmp    402407 <_Z8isNumberRKSs+0xb1>
  4023de:	83 45 ec 01          	addl   $0x1,-0x14(%rbp)
  4023e2:	8b 45 ec             	mov    -0x14(%rbp),%eax
  4023e5:	48 63 d8             	movslq %eax,%rbx
  4023e8:	48 8b 45 d8          	mov    -0x28(%rbp),%rax
  4023ec:	48 89 c7             	mov    %rax,%rdi
  4023ef:	e8 7c fb ff ff       	callq  401f70 <_ZNKSs6lengthEv@plt>
  4023f4:	48 39 c3             	cmp    %rax,%rbx
  4023f7:	0f 92 c0             	setb   %al
  4023fa:	84 c0                	test   %al,%al
  4023fc:	0f 85 6a ff ff ff    	jne    40236c <_Z8isNumberRKSs+0x16>
  402402:	b8 01 00 00 00       	mov    $0x1,%eax
  402407:	48 83 c4 28          	add    $0x28,%rsp
  40240b:	5b                   	pop    %rbx
  40240c:	5d                   	pop    %rbp
  40240d:	c3                   	retq   

000000000040240e <_Z13stringToFloatRKSs>:
  40240e:	55                   	push   %rbp
  40240f:	48 89 e5             	mov    %rsp,%rbp
  402412:	53                   	push   %rbx
  402413:	48 81 ec 98 01 00 00 	sub    $0x198,%rsp
  40241a:	48 89 bd 68 fe ff ff 	mov    %rdi,-0x198(%rbp)
  402421:	48 8b 85 68 fe ff ff 	mov    -0x198(%rbp),%rax
  402428:	48 89 c7             	mov    %rax,%rdi
  40242b:	e8 26 ff ff ff       	callq  402356 <_Z8isNumberRKSs>
  402430:	84 c0                	test   %al,%al
  402432:	74 51                	je     402485 <_Z13stringToFloatRKSs+0x77>
  402434:	be 08 00 00 00       	mov    $0x8,%esi
  402439:	bf 10 00 00 00       	mov    $0x10,%edi
  40243e:	e8 84 1b 00 00       	callq  403fc7 <_ZStorSt13_Ios_OpenmodeS_>
  402443:	89 c2                	mov    %eax,%edx
  402445:	48 8b 8d 68 fe ff ff 	mov    -0x198(%rbp),%rcx
  40244c:	48 8d 85 70 fe ff ff 	lea    -0x190(%rbp),%rax
  402453:	48 89 ce             	mov    %rcx,%rsi
  402456:	48 89 c7             	mov    %rax,%rdi
  402459:	e8 b2 f9 ff ff       	callq  401e10 <_ZNSt18basic_stringstreamIcSt11char_traitsIcESaIcEEC1ERKSsSt13_Ios_Openmode@plt>
  40245e:	48 8d 55 e4          	lea    -0x1c(%rbp),%rdx
  402462:	48 8d 85 70 fe ff ff 	lea    -0x190(%rbp),%rax
  402469:	48 89 d6             	mov    %rdx,%rsi
  40246c:	48 89 c7             	mov    %rax,%rdi
  40246f:	e8 dc fd ff ff       	callq  402250 <_ZNSirsERf@plt>
  402474:	48 8d 85 70 fe ff ff 	lea    -0x190(%rbp),%rax
  40247b:	48 89 c7             	mov    %rax,%rdi
  40247e:	e8 2d fd ff ff       	callq  4021b0 <_ZNSt18basic_stringstreamIcSt11char_traitsIcESaIcEED1Ev@plt>
  402483:	eb 6f                	jmp    4024f4 <_Z13stringToFloatRKSs+0xe6>
  402485:	c7 45 ec 00 00 00 00 	movl   $0x0,-0x14(%rbp)
  40248c:	eb 47                	jmp    4024d5 <_Z13stringToFloatRKSs+0xc7>
  40248e:	8b 45 ec             	mov    -0x14(%rbp),%eax
  402491:	48 63 d0             	movslq %eax,%rdx
  402494:	48 8b 85 68 fe ff ff 	mov    -0x198(%rbp),%rax
  40249b:	48 89 d6             	mov    %rdx,%rsi
  40249e:	48 89 c7             	mov    %rax,%rdi
  4024a1:	e8 2a fc ff ff       	callq  4020d0 <_ZNKSsixEm@plt>
  4024a6:	0f b6 00             	movzbl (%rax),%eax
  4024a9:	88 45 eb             	mov    %al,-0x15(%rbp)
  4024ac:	8b 45 ec             	mov    -0x14(%rbp),%eax
  4024af:	8d 50 01             	lea    0x1(%rax),%edx
  4024b2:	0f be 45 eb          	movsbl -0x15(%rbp),%eax
  4024b6:	0f af c2             	imul   %edx,%eax
  4024b9:	66 0f ef c0          	pxor   %xmm0,%xmm0
  4024bd:	f3 0f 2a c0          	cvtsi2ss %eax,%xmm0
  4024c1:	f3 0f 10 4d e4       	movss  -0x1c(%rbp),%xmm1
  4024c6:	f3 0f 58 c1          	addss  %xmm1,%xmm0
  4024ca:	66 0f 7e c0          	movd   %xmm0,%eax
  4024ce:	89 45 e4             	mov    %eax,-0x1c(%rbp)
  4024d1:	83 45 ec 01          	addl   $0x1,-0x14(%rbp)
  4024d5:	8b 45 ec             	mov    -0x14(%rbp),%eax
  4024d8:	48 63 d8             	movslq %eax,%rbx
  4024db:	48 8b 85 68 fe ff ff 	mov    -0x198(%rbp),%rax
  4024e2:	48 89 c7             	mov    %rax,%rdi
  4024e5:	e8 86 fa ff ff       	callq  401f70 <_ZNKSs6lengthEv@plt>
  4024ea:	48 39 c3             	cmp    %rax,%rbx
  4024ed:	0f 92 c0             	setb   %al
  4024f0:	84 c0                	test   %al,%al
  4024f2:	75 9a                	jne    40248e <_Z13stringToFloatRKSs+0x80>
  4024f4:	8b 45 e4             	mov    -0x1c(%rbp),%eax
  4024f7:	89 85 64 fe ff ff    	mov    %eax,-0x19c(%rbp)
  4024fd:	f3 0f 10 85 64 fe ff 	movss  -0x19c(%rbp),%xmm0
  402504:	ff 
  402505:	eb 1d                	jmp    402524 <_Z13stringToFloatRKSs+0x116>
  402507:	48 89 c3             	mov    %rax,%rbx
  40250a:	48 8d 85 70 fe ff ff 	lea    -0x190(%rbp),%rax
  402511:	48 89 c7             	mov    %rax,%rdi
  402514:	e8 97 fc ff ff       	callq  4021b0 <_ZNSt18basic_stringstreamIcSt11char_traitsIcESaIcEED1Ev@plt>
  402519:	48 89 d8             	mov    %rbx,%rax
  40251c:	48 89 c7             	mov    %rax,%rdi
  40251f:	e8 dc fc ff ff       	callq  402200 <_Unwind_Resume@plt>
  402524:	48 81 c4 98 01 00 00 	add    $0x198,%rsp
  40252b:	5b                   	pop    %rbx
  40252c:	5d                   	pop    %rbp
  40252d:	c3                   	retq   

000000000040252e <_ZN9TestSuiteD1Ev>:
  40252e:	55                   	push   %rbp
  40252f:	48 89 e5             	mov    %rsp,%rbp
  402532:	53                   	push   %rbx
  402533:	48 83 ec 28          	sub    $0x28,%rsp
  402537:	48 89 7d d8          	mov    %rdi,-0x28(%rbp)
  40253b:	48 8b 45 d8          	mov    -0x28(%rbp),%rax
  40253f:	48 c7 00 30 1b 41 00 	movq   $0x411b30,(%rax)
  402546:	c7 45 ec 00 00 00 00 	movl   $0x0,-0x14(%rbp)
  40254d:	eb 41                	jmp    402590 <_ZN9TestSuiteD1Ev+0x62>
  40254f:	48 8b 45 d8          	mov    -0x28(%rbp),%rax
  402553:	48 8b 40 68          	mov    0x68(%rax),%rax
  402557:	8b 55 ec             	mov    -0x14(%rbp),%edx
  40255a:	48 63 d2             	movslq %edx,%rdx
  40255d:	48 c1 e2 03          	shl    $0x3,%rdx
  402561:	48 01 d0             	add    %rdx,%rax
  402564:	48 8b 00             	mov    (%rax),%rax
  402567:	48 85 c0             	test   %rax,%rax
  40256a:	74 20                	je     40258c <_ZN9TestSuiteD1Ev+0x5e>
  40256c:	48 8b 45 d8          	mov    -0x28(%rbp),%rax
  402570:	48 8b 40 68          	mov    0x68(%rax),%rax
  402574:	8b 55 ec             	mov    -0x14(%rbp),%edx
  402577:	48 63 d2             	movslq %edx,%rdx
  40257a:	48 c1 e2 03          	shl    $0x3,%rdx
  40257e:	48 01 d0             	add    %rdx,%rax
  402581:	48 8b 00             	mov    (%rax),%rax
  402584:	48 89 c7             	mov    %rax,%rdi
  402587:	e8 54 fb ff ff       	callq  4020e0 <_ZdaPv@plt>
  40258c:	83 45 ec 01          	addl   $0x1,-0x14(%rbp)
  402590:	48 8b 45 d8          	mov    -0x28(%rbp),%rax
  402594:	8b 80 a0 00 00 00    	mov    0xa0(%rax),%eax
  40259a:	3b 45 ec             	cmp    -0x14(%rbp),%eax
  40259d:	7f b0                	jg     40254f <_ZN9TestSuiteD1Ev+0x21>
  40259f:	48 8b 45 d8          	mov    -0x28(%rbp),%rax
  4025a3:	48 8b 40 68          	mov    0x68(%rax),%rax
  4025a7:	48 85 c0             	test   %rax,%rax
  4025aa:	74 10                	je     4025bc <_ZN9TestSuiteD1Ev+0x8e>
  4025ac:	48 8b 45 d8          	mov    -0x28(%rbp),%rax
  4025b0:	48 8b 40 68          	mov    0x68(%rax),%rax
  4025b4:	48 89 c7             	mov    %rax,%rdi
  4025b7:	e8 24 fb ff ff       	callq  4020e0 <_ZdaPv@plt>
  4025bc:	48 8b 45 d8          	mov    -0x28(%rbp),%rax
  4025c0:	48 05 88 00 00 00    	add    $0x88,%rax
  4025c6:	48 89 c7             	mov    %rax,%rdi
  4025c9:	e8 7c 1b 00 00       	callq  40414a <_ZNSt6vectorIiSaIiEED1Ev>
  4025ce:	48 8b 45 d8          	mov    -0x28(%rbp),%rax
  4025d2:	48 83 c0 70          	add    $0x70,%rax
  4025d6:	48 89 c7             	mov    %rax,%rdi
  4025d9:	e8 6c 1b 00 00       	callq  40414a <_ZNSt6vectorIiSaIiEED1Ev>
  4025de:	48 8b 45 d8          	mov    -0x28(%rbp),%rax
  4025e2:	48 83 c0 38          	add    $0x38,%rax
  4025e6:	48 89 c7             	mov    %rax,%rdi
  4025e9:	e8 5a 1a 00 00       	callq  404048 <_ZNSt3mapIiSsSt4lessIiESaISt4pairIKiSsEEED1Ev>
  4025ee:	48 8b 45 d8          	mov    -0x28(%rbp),%rax
  4025f2:	48 83 c0 08          	add    $0x8,%rax
  4025f6:	48 89 c7             	mov    %rax,%rdi
  4025f9:	e8 30 1a 00 00       	callq  40402e <_ZNSt3mapISsiSt4lessISsESaISt4pairIKSsiEEED1Ev>
  4025fe:	b8 00 00 00 00       	mov    $0x0,%eax
  402603:	85 c0                	test   %eax,%eax
  402605:	74 56                	je     40265d <_ZN9TestSuiteD1Ev+0x12f>
  402607:	48 8b 45 d8          	mov    -0x28(%rbp),%rax
  40260b:	48 89 c7             	mov    %rax,%rdi
  40260e:	e8 9d f8 ff ff       	callq  401eb0 <_ZdlPv@plt>
  402613:	eb 48                	jmp    40265d <_ZN9TestSuiteD1Ev+0x12f>
  402615:	48 89 c3             	mov    %rax,%rbx
  402618:	48 8b 45 d8          	mov    -0x28(%rbp),%rax
  40261c:	48 83 c0 70          	add    $0x70,%rax
  402620:	48 89 c7             	mov    %rax,%rdi
  402623:	e8 22 1b 00 00       	callq  40414a <_ZNSt6vectorIiSaIiEED1Ev>
  402628:	eb 03                	jmp    40262d <_ZN9TestSuiteD1Ev+0xff>
  40262a:	48 89 c3             	mov    %rax,%rbx
  40262d:	48 8b 45 d8          	mov    -0x28(%rbp),%rax
  402631:	48 83 c0 38          	add    $0x38,%rax
  402635:	48 89 c7             	mov    %rax,%rdi
  402638:	e8 0b 1a 00 00       	callq  404048 <_ZNSt3mapIiSsSt4lessIiESaISt4pairIKiSsEEED1Ev>
  40263d:	eb 03                	jmp    402642 <_ZN9TestSuiteD1Ev+0x114>
  40263f:	48 89 c3             	mov    %rax,%rbx
  402642:	48 8b 45 d8          	mov    -0x28(%rbp),%rax
  402646:	48 83 c0 08          	add    $0x8,%rax
  40264a:	48 89 c7             	mov    %rax,%rdi
  40264d:	e8 dc 19 00 00       	callq  40402e <_ZNSt3mapISsiSt4lessISsESaISt4pairIKSsiEEED1Ev>
  402652:	48 89 d8             	mov    %rbx,%rax
  402655:	48 89 c7             	mov    %rax,%rdi
  402658:	e8 a3 fb ff ff       	callq  402200 <_Unwind_Resume@plt>
  40265d:	48 83 c4 28          	add    $0x28,%rsp
  402661:	5b                   	pop    %rbx
  402662:	5d                   	pop    %rbp
  402663:	c3                   	retq   

0000000000402664 <_ZN9TestSuiteD0Ev>:
  402664:	55                   	push   %rbp
  402665:	48 89 e5             	mov    %rsp,%rbp
  402668:	48 83 ec 10          	sub    $0x10,%rsp
  40266c:	48 89 7d f8          	mov    %rdi,-0x8(%rbp)
  402670:	48 8b 45 f8          	mov    -0x8(%rbp),%rax
  402674:	48 89 c7             	mov    %rax,%rdi
  402677:	e8 b2 fe ff ff       	callq  40252e <_ZN9TestSuiteD1Ev>
  40267c:	48 8b 45 f8          	mov    -0x8(%rbp),%rax
  402680:	48 89 c7             	mov    %rax,%rdi
  402683:	e8 28 f8 ff ff       	callq  401eb0 <_ZdlPv@plt>
  402688:	c9                   	leaveq 
  402689:	c3                   	retq   

000000000040268a <_ZN9TestSuite9getHeaderERKSs>:
  40268a:	55                   	push   %rbp
  40268b:	48 89 e5             	mov    %rsp,%rbp
  40268e:	53                   	push   %rbx
  40268f:	48 83 ec 38          	sub    $0x38,%rsp
  402693:	48 89 7d c8          	mov    %rdi,-0x38(%rbp)
  402697:	48 89 75 c0          	mov    %rsi,-0x40(%rbp)
  40269b:	48 8d 45 eb          	lea    -0x15(%rbp),%rax
  40269f:	48 89 c7             	mov    %rax,%rdi
  4026a2:	e8 19 fb ff ff       	callq  4021c0 <_ZNSaIcEC1Ev@plt>
  4026a7:	48 8d 55 eb          	lea    -0x15(%rbp),%rdx
  4026ab:	48 8d 45 e0          	lea    -0x20(%rbp),%rax
  4026af:	be e8 1a 41 00       	mov    $0x411ae8,%esi
  4026b4:	48 89 c7             	mov    %rax,%rdi
  4026b7:	e8 34 f9 ff ff       	callq  401ff0 <_ZNSsC1EPKcRKSaIcE@plt>
  4026bc:	48 8d 45 eb          	lea    -0x15(%rbp),%rax
  4026c0:	48 89 c7             	mov    %rax,%rdi
  4026c3:	e8 e8 f9 ff ff       	callq  4020b0 <_ZNSaIcED1Ev@plt>
  4026c8:	c7 45 dc 00 00 00 00 	movl   $0x0,-0x24(%rbp)
  4026cf:	c7 45 ec 00 00 00 00 	movl   $0x0,-0x14(%rbp)
  4026d6:	e9 19 01 00 00       	jmpq   4027f4 <_ZN9TestSuite9getHeaderERKSs+0x16a>
  4026db:	8b 45 ec             	mov    -0x14(%rbp),%eax
  4026de:	48 63 d0             	movslq %eax,%rdx
  4026e1:	48 8b 45 c0          	mov    -0x40(%rbp),%rax
  4026e5:	48 89 d6             	mov    %rdx,%rsi
  4026e8:	48 89 c7             	mov    %rax,%rdi
  4026eb:	e8 e0 f9 ff ff       	callq  4020d0 <_ZNKSsixEm@plt>
  4026f0:	0f b6 00             	movzbl (%rax),%eax
  4026f3:	3c 2c                	cmp    $0x2c,%al
  4026f5:	0f 94 c0             	sete   %al
  4026f8:	84 c0                	test   %al,%al
  4026fa:	74 67                	je     402763 <_ZN9TestSuite9getHeaderERKSs+0xd9>
  4026fc:	48 8b 45 c8          	mov    -0x38(%rbp),%rax
  402700:	48 8d 50 08          	lea    0x8(%rax),%rdx
  402704:	48 8d 45 e0          	lea    -0x20(%rbp),%rax
  402708:	48 89 c6             	mov    %rax,%rsi
  40270b:	48 89 d7             	mov    %rdx,%rdi
  40270e:	e8 b7 1a 00 00       	callq  4041ca <_ZNSt3mapISsiSt4lessISsESaISt4pairIKSsiEEEixERS3_>
  402713:	48 89 c2             	mov    %rax,%rdx
  402716:	8b 45 dc             	mov    -0x24(%rbp),%eax
  402719:	89 02                	mov    %eax,(%rdx)
  40271b:	48 8b 45 c8          	mov    -0x38(%rbp),%rax
  40271f:	48 8d 50 38          	lea    0x38(%rax),%rdx
  402723:	48 8d 45 dc          	lea    -0x24(%rbp),%rax
  402727:	48 89 c6             	mov    %rax,%rsi
  40272a:	48 89 d7             	mov    %rdx,%rdi
  40272d:	e8 f4 1b 00 00       	callq  404326 <_ZNSt3mapIiSsSt4lessIiESaISt4pairIKiSsEEEixERS3_>
  402732:	48 89 c2             	mov    %rax,%rdx
  402735:	48 8d 45 e0          	lea    -0x20(%rbp),%rax
  402739:	48 89 c6             	mov    %rax,%rsi
  40273c:	48 89 d7             	mov    %rdx,%rdi
  40273f:	e8 cc fa ff ff       	callq  402210 <_ZNSsaSERKSs@plt>
  402744:	8b 45 dc             	mov    -0x24(%rbp),%eax
  402747:	83 c0 01             	add    $0x1,%eax
  40274a:	89 45 dc             	mov    %eax,-0x24(%rbp)
  40274d:	48 8d 45 e0          	lea    -0x20(%rbp),%rax
  402751:	be e8 1a 41 00       	mov    $0x411ae8,%esi
  402756:	48 89 c7             	mov    %rax,%rdi
  402759:	e8 82 f6 ff ff       	callq  401de0 <_ZNSsaSEPKc@plt>
  40275e:	e9 8d 00 00 00       	jmpq   4027f0 <_ZN9TestSuite9getHeaderERKSs+0x166>
  402763:	8b 45 ec             	mov    -0x14(%rbp),%eax
  402766:	48 63 d0             	movslq %eax,%rdx
  402769:	48 8b 45 c0          	mov    -0x40(%rbp),%rax
  40276d:	48 89 d6             	mov    %rdx,%rsi
  402770:	48 89 c7             	mov    %rax,%rdi
  402773:	e8 58 f9 ff ff       	callq  4020d0 <_ZNKSsixEm@plt>
  402778:	0f b6 00             	movzbl (%rax),%eax
  40277b:	3c 20                	cmp    $0x20,%al
  40277d:	74 3f                	je     4027be <_ZN9TestSuite9getHeaderERKSs+0x134>
  40277f:	8b 45 ec             	mov    -0x14(%rbp),%eax
  402782:	48 63 d0             	movslq %eax,%rdx
  402785:	48 8b 45 c0          	mov    -0x40(%rbp),%rax
  402789:	48 89 d6             	mov    %rdx,%rsi
  40278c:	48 89 c7             	mov    %rax,%rdi
  40278f:	e8 3c f9 ff ff       	callq  4020d0 <_ZNKSsixEm@plt>
  402794:	0f b6 00             	movzbl (%rax),%eax
  402797:	3c 0a                	cmp    $0xa,%al
  402799:	74 23                	je     4027be <_ZN9TestSuite9getHeaderERKSs+0x134>
  40279b:	8b 45 ec             	mov    -0x14(%rbp),%eax
  40279e:	48 63 d0             	movslq %eax,%rdx
  4027a1:	48 8b 45 c0          	mov    -0x40(%rbp),%rax
  4027a5:	48 89 d6             	mov    %rdx,%rsi
  4027a8:	48 89 c7             	mov    %rax,%rdi
  4027ab:	e8 20 f9 ff ff       	callq  4020d0 <_ZNKSsixEm@plt>
  4027b0:	0f b6 00             	movzbl (%rax),%eax
  4027b3:	3c 0d                	cmp    $0xd,%al
  4027b5:	74 07                	je     4027be <_ZN9TestSuite9getHeaderERKSs+0x134>
  4027b7:	b8 01 00 00 00       	mov    $0x1,%eax
  4027bc:	eb 05                	jmp    4027c3 <_ZN9TestSuite9getHeaderERKSs+0x139>
  4027be:	b8 00 00 00 00       	mov    $0x0,%eax
  4027c3:	84 c0                	test   %al,%al
  4027c5:	74 29                	je     4027f0 <_ZN9TestSuite9getHeaderERKSs+0x166>
  4027c7:	8b 45 ec             	mov    -0x14(%rbp),%eax
  4027ca:	48 63 d0             	movslq %eax,%rdx
  4027cd:	48 8b 45 c0          	mov    -0x40(%rbp),%rax
  4027d1:	48 89 d6             	mov    %rdx,%rsi
  4027d4:	48 89 c7             	mov    %rax,%rdi
  4027d7:	e8 f4 f8 ff ff       	callq  4020d0 <_ZNKSsixEm@plt>
  4027dc:	0f b6 00             	movzbl (%rax),%eax
  4027df:	0f be d0             	movsbl %al,%edx
  4027e2:	48 8d 45 e0          	lea    -0x20(%rbp),%rax
  4027e6:	89 d6                	mov    %edx,%esi
  4027e8:	48 89 c7             	mov    %rax,%rdi
  4027eb:	e8 70 f6 ff ff       	callq  401e60 <_ZNSspLEc@plt>
  4027f0:	83 45 ec 01          	addl   $0x1,-0x14(%rbp)
  4027f4:	8b 45 ec             	mov    -0x14(%rbp),%eax
  4027f7:	48 63 d8             	movslq %eax,%rbx
  4027fa:	48 8b 45 c0          	mov    -0x40(%rbp),%rax
  4027fe:	48 89 c7             	mov    %rax,%rdi
  402801:	e8 da f6 ff ff       	callq  401ee0 <_ZNKSs4sizeEv@plt>
  402806:	48 39 c3             	cmp    %rax,%rbx
  402809:	0f 92 c0             	setb   %al
  40280c:	84 c0                	test   %al,%al
  40280e:	0f 85 c7 fe ff ff    	jne    4026db <_ZN9TestSuite9getHeaderERKSs+0x51>
  402814:	48 8d 45 e0          	lea    -0x20(%rbp),%rax
  402818:	be e8 1a 41 00       	mov    $0x411ae8,%esi
  40281d:	48 89 c7             	mov    %rax,%rdi
  402820:	e8 60 1c 00 00       	callq  404485 <_ZStneIcSt11char_traitsIcESaIcEEbRKSbIT_T0_T1_EPKS3_>
  402825:	84 c0                	test   %al,%al
  402827:	74 48                	je     402871 <_ZN9TestSuite9getHeaderERKSs+0x1e7>
  402829:	48 8b 45 c8          	mov    -0x38(%rbp),%rax
  40282d:	48 8d 50 08          	lea    0x8(%rax),%rdx
  402831:	48 8d 45 e0          	lea    -0x20(%rbp),%rax
  402835:	48 89 c6             	mov    %rax,%rsi
  402838:	48 89 d7             	mov    %rdx,%rdi
  40283b:	e8 8a 19 00 00       	callq  4041ca <_ZNSt3mapISsiSt4lessISsESaISt4pairIKSsiEEEixERS3_>
  402840:	48 89 c2             	mov    %rax,%rdx
  402843:	8b 45 dc             	mov    -0x24(%rbp),%eax
  402846:	89 02                	mov    %eax,(%rdx)
  402848:	48 8b 45 c8          	mov    -0x38(%rbp),%rax
  40284c:	48 8d 50 38          	lea    0x38(%rax),%rdx
  402850:	48 8d 45 dc          	lea    -0x24(%rbp),%rax
  402854:	48 89 c6             	mov    %rax,%rsi
  402857:	48 89 d7             	mov    %rdx,%rdi
  40285a:	e8 c7 1a 00 00       	callq  404326 <_ZNSt3mapIiSsSt4lessIiESaISt4pairIKiSsEEEixERS3_>
  40285f:	48 89 c2             	mov    %rax,%rdx
  402862:	48 8d 45 e0          	lea    -0x20(%rbp),%rax
  402866:	48 89 c6             	mov    %rax,%rsi
  402869:	48 89 d7             	mov    %rdx,%rdi
  40286c:	e8 9f f9 ff ff       	callq  402210 <_ZNSsaSERKSs@plt>
  402871:	48 8d 45 e0          	lea    -0x20(%rbp),%rax
  402875:	48 89 c7             	mov    %rax,%rdi
  402878:	e8 33 f7 ff ff       	callq  401fb0 <_ZNSsD1Ev@plt>
  40287d:	eb 34                	jmp    4028b3 <_ZN9TestSuite9getHeaderERKSs+0x229>
  40287f:	48 89 c3             	mov    %rax,%rbx
  402882:	48 8d 45 eb          	lea    -0x15(%rbp),%rax
  402886:	48 89 c7             	mov    %rax,%rdi
  402889:	e8 22 f8 ff ff       	callq  4020b0 <_ZNSaIcED1Ev@plt>
  40288e:	48 89 d8             	mov    %rbx,%rax
  402891:	48 89 c7             	mov    %rax,%rdi
  402894:	e8 67 f9 ff ff       	callq  402200 <_Unwind_Resume@plt>
  402899:	48 89 c3             	mov    %rax,%rbx
  40289c:	48 8d 45 e0          	lea    -0x20(%rbp),%rax
  4028a0:	48 89 c7             	mov    %rax,%rdi
  4028a3:	e8 08 f7 ff ff       	callq  401fb0 <_ZNSsD1Ev@plt>
  4028a8:	48 89 d8             	mov    %rbx,%rax
  4028ab:	48 89 c7             	mov    %rax,%rdi
  4028ae:	e8 4d f9 ff ff       	callq  402200 <_Unwind_Resume@plt>
  4028b3:	48 83 c4 38          	add    $0x38,%rsp
  4028b7:	5b                   	pop    %rbx
  4028b8:	5d                   	pop    %rbp
  4028b9:	c3                   	retq   

00000000004028ba <_ZN9TestSuite14allocateMemoryESs>:
  4028ba:	55                   	push   %rbp
  4028bb:	48 89 e5             	mov    %rsp,%rbp
  4028be:	53                   	push   %rbx
  4028bf:	48 81 ec 38 02 00 00 	sub    $0x238,%rsp
  4028c6:	48 89 bd c8 fd ff ff 	mov    %rdi,-0x238(%rbp)
  4028cd:	48 89 b5 c0 fd ff ff 	mov    %rsi,-0x240(%rbp)
  4028d4:	48 8b 85 c0 fd ff ff 	mov    -0x240(%rbp),%rax
  4028db:	48 89 c7             	mov    %rax,%rdi
  4028de:	e8 ad f5 ff ff       	callq  401e90 <_ZNKSs5c_strEv@plt>
  4028e3:	48 89 c1             	mov    %rax,%rcx
  4028e6:	48 8d 85 d0 fd ff ff 	lea    -0x230(%rbp),%rax
  4028ed:	ba 08 00 00 00       	mov    $0x8,%edx
  4028f2:	48 89 ce             	mov    %rcx,%rsi
  4028f5:	48 89 c7             	mov    %rax,%rdi
  4028f8:	e8 03 f8 ff ff       	callq  402100 <_ZNSt14basic_ifstreamIcSt11char_traitsIcEEC1EPKcSt13_Ios_Openmode@plt>
  4028fd:	48 8d 45 e0          	lea    -0x20(%rbp),%rax
  402901:	48 89 c7             	mov    %rax,%rdi
  402904:	e8 e7 f4 ff ff       	callq  401df0 <_ZNSsC1Ev@plt>
  402909:	48 8b 85 c8 fd ff ff 	mov    -0x238(%rbp),%rax
  402910:	c7 80 a0 00 00 00 00 	movl   $0x0,0xa0(%rax)
  402917:	00 00 00 
  40291a:	48 8d 85 d0 fd ff ff 	lea    -0x230(%rbp),%rax
  402921:	48 89 c7             	mov    %rax,%rdi
  402924:	e8 07 f9 ff ff       	callq  402230 <_ZNSt14basic_ifstreamIcSt11char_traitsIcEE7is_openEv@plt>
  402929:	84 c0                	test   %al,%al
  40292b:	0f 84 a3 00 00 00    	je     4029d4 <_ZN9TestSuite14allocateMemoryESs+0x11a>
  402931:	48 8d 55 e0          	lea    -0x20(%rbp),%rdx
  402935:	48 8d 85 d0 fd ff ff 	lea    -0x230(%rbp),%rax
  40293c:	48 89 d6             	mov    %rdx,%rsi
  40293f:	48 89 c7             	mov    %rax,%rdi
  402942:	e8 29 f5 ff ff       	callq  401e70 <_ZSt7getlineIcSt11char_traitsIcESaIcEERSt13basic_istreamIT_T0_ES7_RSbIS4_S5_T1_E@plt>
  402947:	48 8d 55 e0          	lea    -0x20(%rbp),%rdx
  40294b:	48 8b 85 c8 fd ff ff 	mov    -0x238(%rbp),%rax
  402952:	48 89 d6             	mov    %rdx,%rsi
  402955:	48 89 c7             	mov    %rax,%rdi
  402958:	e8 2d fd ff ff       	callq  40268a <_ZN9TestSuite9getHeaderERKSs>
  40295d:	eb 48                	jmp    4029a7 <_ZN9TestSuite14allocateMemoryESs+0xed>
  40295f:	48 8d 55 e0          	lea    -0x20(%rbp),%rdx
  402963:	48 8d 85 d0 fd ff ff 	lea    -0x230(%rbp),%rax
  40296a:	48 89 d6             	mov    %rdx,%rsi
  40296d:	48 89 c7             	mov    %rax,%rdi
  402970:	e8 fb f4 ff ff       	callq  401e70 <_ZSt7getlineIcSt11char_traitsIcESaIcEERSt13basic_istreamIT_T0_ES7_RSbIS4_S5_T1_E@plt>
  402975:	48 8d 45 e0          	lea    -0x20(%rbp),%rax
  402979:	be e8 1a 41 00       	mov    $0x411ae8,%esi
  40297e:	48 89 c7             	mov    %rax,%rdi
  402981:	e8 ff 1a 00 00       	callq  404485 <_ZStneIcSt11char_traitsIcESaIcEEbRKSbIT_T0_T1_EPKS3_>
  402986:	84 c0                	test   %al,%al
  402988:	74 1d                	je     4029a7 <_ZN9TestSuite14allocateMemoryESs+0xed>
  40298a:	48 8b 85 c8 fd ff ff 	mov    -0x238(%rbp),%rax
  402991:	8b 80 a0 00 00 00    	mov    0xa0(%rax),%eax
  402997:	8d 50 01             	lea    0x1(%rax),%edx
  40299a:	48 8b 85 c8 fd ff ff 	mov    -0x238(%rbp),%rax
  4029a1:	89 90 a0 00 00 00    	mov    %edx,0xa0(%rax)
  4029a7:	48 8d 85 d0 fd ff ff 	lea    -0x230(%rbp),%rax
  4029ae:	48 05 00 01 00 00    	add    $0x100,%rax
  4029b4:	48 89 c7             	mov    %rax,%rdi
  4029b7:	e8 84 f6 ff ff       	callq  402040 <_ZNKSt9basic_iosIcSt11char_traitsIcEE3eofEv@plt>
  4029bc:	83 f0 01             	xor    $0x1,%eax
  4029bf:	84 c0                	test   %al,%al
  4029c1:	75 9c                	jne    40295f <_ZN9TestSuite14allocateMemoryESs+0xa5>
  4029c3:	48 8d 85 d0 fd ff ff 	lea    -0x230(%rbp),%rax
  4029ca:	48 89 c7             	mov    %rax,%rdi
  4029cd:	e8 4e f4 ff ff       	callq  401e20 <_ZNSt14basic_ifstreamIcSt11char_traitsIcEE5closeEv@plt>
  4029d2:	eb 3b                	jmp    402a0f <_ZN9TestSuite14allocateMemoryESs+0x155>
  4029d4:	be e9 1a 41 00       	mov    $0x411ae9,%esi
  4029d9:	bf 80 a5 61 00       	mov    $0x61a580,%edi
  4029de:	e8 ad f5 ff ff       	callq  401f90 <_ZStlsISt11char_traitsIcEERSt13basic_ostreamIcT_ES5_PKc@plt>
  4029e3:	48 89 c2             	mov    %rax,%rdx
  4029e6:	48 8b 85 c0 fd ff ff 	mov    -0x240(%rbp),%rax
  4029ed:	48 89 c6             	mov    %rax,%rsi
  4029f0:	48 89 d7             	mov    %rdx,%rdi
  4029f3:	e8 98 f6 ff ff       	callq  402090 <_ZStlsIcSt11char_traitsIcESaIcEERSt13basic_ostreamIT_T0_ES7_RKSbIS4_S5_T1_E@plt>
  4029f8:	be 90 21 40 00       	mov    $0x402190,%esi
  4029fd:	48 89 c7             	mov    %rax,%rdi
  402a00:	e8 0b f7 ff ff       	callq  402110 <_ZNSolsEPFRSoS_E@plt>
  402a05:	bf 01 00 00 00       	mov    $0x1,%edi
  402a0a:	e8 b1 f4 ff ff       	callq  401ec0 <exit@plt>
  402a0f:	48 8b 85 c8 fd ff ff 	mov    -0x238(%rbp),%rax
  402a16:	8b 80 a0 00 00 00    	mov    0xa0(%rax),%eax
  402a1c:	48 98                	cltq   
  402a1e:	48 ba 00 00 00 00 00 	movabs $0xfe0000000000000,%rdx
  402a25:	00 e0 0f 
  402a28:	48 39 d0             	cmp    %rdx,%rax
  402a2b:	77 06                	ja     402a33 <_ZN9TestSuite14allocateMemoryESs+0x179>
  402a2d:	48 c1 e0 03          	shl    $0x3,%rax
  402a31:	eb 07                	jmp    402a3a <_ZN9TestSuite14allocateMemoryESs+0x180>
  402a33:	48 c7 c0 ff ff ff ff 	mov    $0xffffffffffffffff,%rax
  402a3a:	48 89 c7             	mov    %rax,%rdi
  402a3d:	e8 5e f4 ff ff       	callq  401ea0 <_Znam@plt>
  402a42:	48 89 c2             	mov    %rax,%rdx
  402a45:	48 8b 85 c8 fd ff ff 	mov    -0x238(%rbp),%rax
  402a4c:	48 89 50 68          	mov    %rdx,0x68(%rax)
  402a50:	c7 45 ec 00 00 00 00 	movl   $0x0,-0x14(%rbp)
  402a57:	eb 57                	jmp    402ab0 <_ZN9TestSuite14allocateMemoryESs+0x1f6>
  402a59:	48 8b 85 c8 fd ff ff 	mov    -0x238(%rbp),%rax
  402a60:	48 8b 40 68          	mov    0x68(%rax),%rax
  402a64:	8b 55 ec             	mov    -0x14(%rbp),%edx
  402a67:	48 63 d2             	movslq %edx,%rdx
  402a6a:	48 c1 e2 03          	shl    $0x3,%rdx
  402a6e:	48 8d 1c 10          	lea    (%rax,%rdx,1),%rbx
  402a72:	48 8b 85 c8 fd ff ff 	mov    -0x238(%rbp),%rax
  402a79:	48 83 c0 08          	add    $0x8,%rax
  402a7d:	48 89 c7             	mov    %rax,%rdi
  402a80:	e8 29 1a 00 00       	callq  4044ae <_ZNKSt3mapISsiSt4lessISsESaISt4pairIKSsiEEE4sizeEv>
  402a85:	48 ba 00 00 00 00 00 	movabs $0x1fc0000000000000,%rdx
  402a8c:	00 c0 1f 
  402a8f:	48 39 d0             	cmp    %rdx,%rax
  402a92:	77 06                	ja     402a9a <_ZN9TestSuite14allocateMemoryESs+0x1e0>
  402a94:	48 c1 e0 02          	shl    $0x2,%rax
  402a98:	eb 07                	jmp    402aa1 <_ZN9TestSuite14allocateMemoryESs+0x1e7>
  402a9a:	48 c7 c0 ff ff ff ff 	mov    $0xffffffffffffffff,%rax
  402aa1:	48 89 c7             	mov    %rax,%rdi
  402aa4:	e8 f7 f3 ff ff       	callq  401ea0 <_Znam@plt>
  402aa9:	48 89 03             	mov    %rax,(%rbx)
  402aac:	83 45 ec 01          	addl   $0x1,-0x14(%rbp)
  402ab0:	48 8b 85 c8 fd ff ff 	mov    -0x238(%rbp),%rax
  402ab7:	8b 80 a0 00 00 00    	mov    0xa0(%rax),%eax
  402abd:	3b 45 ec             	cmp    -0x14(%rbp),%eax
  402ac0:	7f 97                	jg     402a59 <_ZN9TestSuite14allocateMemoryESs+0x19f>
  402ac2:	48 8d 45 e0          	lea    -0x20(%rbp),%rax
  402ac6:	48 89 c7             	mov    %rax,%rdi
  402ac9:	e8 e2 f4 ff ff       	callq  401fb0 <_ZNSsD1Ev@plt>
  402ace:	48 8d 85 d0 fd ff ff 	lea    -0x230(%rbp),%rax
  402ad5:	48 89 c7             	mov    %rax,%rdi
  402ad8:	e8 23 f5 ff ff       	callq  402000 <_ZNSt14basic_ifstreamIcSt11char_traitsIcEED1Ev@plt>
  402add:	eb 2e                	jmp    402b0d <_ZN9TestSuite14allocateMemoryESs+0x253>
  402adf:	48 89 c3             	mov    %rax,%rbx
  402ae2:	48 8d 45 e0          	lea    -0x20(%rbp),%rax
  402ae6:	48 89 c7             	mov    %rax,%rdi
  402ae9:	e8 c2 f4 ff ff       	callq  401fb0 <_ZNSsD1Ev@plt>
  402aee:	eb 03                	jmp    402af3 <_ZN9TestSuite14allocateMemoryESs+0x239>
  402af0:	48 89 c3             	mov    %rax,%rbx
  402af3:	48 8d 85 d0 fd ff ff 	lea    -0x230(%rbp),%rax
  402afa:	48 89 c7             	mov    %rax,%rdi
  402afd:	e8 fe f4 ff ff       	callq  402000 <_ZNSt14basic_ifstreamIcSt11char_traitsIcEED1Ev@plt>
  402b02:	48 89 d8             	mov    %rbx,%rax
  402b05:	48 89 c7             	mov    %rax,%rdi
  402b08:	e8 f3 f6 ff ff       	callq  402200 <_Unwind_Resume@plt>
  402b0d:	48 81 c4 38 02 00 00 	add    $0x238,%rsp
  402b14:	5b                   	pop    %rbx
  402b15:	5d                   	pop    %rbp
  402b16:	c3                   	retq   
  402b17:	90                   	nop

0000000000402b18 <_ZN9TestSuite11processLineEiRKSs>:
  402b18:	55                   	push   %rbp
  402b19:	48 89 e5             	mov    %rsp,%rbp
  402b1c:	53                   	push   %rbx
  402b1d:	48 83 ec 48          	sub    $0x48,%rsp
  402b21:	48 89 7d c8          	mov    %rdi,-0x38(%rbp)
  402b25:	89 75 c4             	mov    %esi,-0x3c(%rbp)
  402b28:	48 89 55 b8          	mov    %rdx,-0x48(%rbp)
  402b2c:	48 8d 45 e7          	lea    -0x19(%rbp),%rax
  402b30:	48 89 c7             	mov    %rax,%rdi
  402b33:	e8 88 f6 ff ff       	callq  4021c0 <_ZNSaIcEC1Ev@plt>
  402b38:	48 8d 55 e7          	lea    -0x19(%rbp),%rdx
  402b3c:	48 8d 45 d0          	lea    -0x30(%rbp),%rax
  402b40:	be e8 1a 41 00       	mov    $0x411ae8,%esi
  402b45:	48 89 c7             	mov    %rax,%rdi
  402b48:	e8 a3 f4 ff ff       	callq  401ff0 <_ZNSsC1EPKcRKSaIcE@plt>
  402b4d:	48 8d 45 e7          	lea    -0x19(%rbp),%rax
  402b51:	48 89 c7             	mov    %rax,%rdi
  402b54:	e8 57 f5 ff ff       	callq  4020b0 <_ZNSaIcED1Ev@plt>
  402b59:	c7 45 ec 00 00 00 00 	movl   $0x0,-0x14(%rbp)
  402b60:	c7 45 e8 00 00 00 00 	movl   $0x0,-0x18(%rbp)
  402b67:	e9 04 01 00 00       	jmpq   402c70 <_ZN9TestSuite11processLineEiRKSs+0x158>
  402b6c:	8b 45 e8             	mov    -0x18(%rbp),%eax
  402b6f:	48 63 d0             	movslq %eax,%rdx
  402b72:	48 8b 45 b8          	mov    -0x48(%rbp),%rax
  402b76:	48 89 d6             	mov    %rdx,%rsi
  402b79:	48 89 c7             	mov    %rax,%rdi
  402b7c:	e8 4f f5 ff ff       	callq  4020d0 <_ZNKSsixEm@plt>
  402b81:	0f b6 00             	movzbl (%rax),%eax
  402b84:	3c 2c                	cmp    $0x2c,%al
  402b86:	0f 94 c0             	sete   %al
  402b89:	84 c0                	test   %al,%al
  402b8b:	74 52                	je     402bdf <_ZN9TestSuite11processLineEiRKSs+0xc7>
  402b8d:	48 8b 45 c8          	mov    -0x38(%rbp),%rax
  402b91:	48 8b 40 68          	mov    0x68(%rax),%rax
  402b95:	8b 55 c4             	mov    -0x3c(%rbp),%edx
  402b98:	48 63 d2             	movslq %edx,%rdx
  402b9b:	48 c1 e2 03          	shl    $0x3,%rdx
  402b9f:	48 01 d0             	add    %rdx,%rax
  402ba2:	48 8b 00             	mov    (%rax),%rax
  402ba5:	8b 55 ec             	mov    -0x14(%rbp),%edx
  402ba8:	48 63 d2             	movslq %edx,%rdx
  402bab:	48 c1 e2 02          	shl    $0x2,%rdx
  402baf:	48 8d 1c 10          	lea    (%rax,%rdx,1),%rbx
  402bb3:	48 8d 45 d0          	lea    -0x30(%rbp),%rax
  402bb7:	48 89 c7             	mov    %rax,%rdi
  402bba:	e8 4f f8 ff ff       	callq  40240e <_Z13stringToFloatRKSs>
  402bbf:	66 0f 7e c0          	movd   %xmm0,%eax
  402bc3:	89 03                	mov    %eax,(%rbx)
  402bc5:	83 45 ec 01          	addl   $0x1,-0x14(%rbp)
  402bc9:	48 8d 45 d0          	lea    -0x30(%rbp),%rax
  402bcd:	be e8 1a 41 00       	mov    $0x411ae8,%esi
  402bd2:	48 89 c7             	mov    %rax,%rdi
  402bd5:	e8 06 f2 ff ff       	callq  401de0 <_ZNSsaSEPKc@plt>
  402bda:	e9 8d 00 00 00       	jmpq   402c6c <_ZN9TestSuite11processLineEiRKSs+0x154>
  402bdf:	8b 45 e8             	mov    -0x18(%rbp),%eax
  402be2:	48 63 d0             	movslq %eax,%rdx
  402be5:	48 8b 45 b8          	mov    -0x48(%rbp),%rax
  402be9:	48 89 d6             	mov    %rdx,%rsi
  402bec:	48 89 c7             	mov    %rax,%rdi
  402bef:	e8 dc f4 ff ff       	callq  4020d0 <_ZNKSsixEm@plt>
  402bf4:	0f b6 00             	movzbl (%rax),%eax
  402bf7:	3c 20                	cmp    $0x20,%al
  402bf9:	74 3f                	je     402c3a <_ZN9TestSuite11processLineEiRKSs+0x122>
  402bfb:	8b 45 e8             	mov    -0x18(%rbp),%eax
  402bfe:	48 63 d0             	movslq %eax,%rdx
  402c01:	48 8b 45 b8          	mov    -0x48(%rbp),%rax
  402c05:	48 89 d6             	mov    %rdx,%rsi
  402c08:	48 89 c7             	mov    %rax,%rdi
  402c0b:	e8 c0 f4 ff ff       	callq  4020d0 <_ZNKSsixEm@plt>
  402c10:	0f b6 00             	movzbl (%rax),%eax
  402c13:	3c 0a                	cmp    $0xa,%al
  402c15:	74 23                	je     402c3a <_ZN9TestSuite11processLineEiRKSs+0x122>
  402c17:	8b 45 e8             	mov    -0x18(%rbp),%eax
  402c1a:	48 63 d0             	movslq %eax,%rdx
  402c1d:	48 8b 45 b8          	mov    -0x48(%rbp),%rax
  402c21:	48 89 d6             	mov    %rdx,%rsi
  402c24:	48 89 c7             	mov    %rax,%rdi
  402c27:	e8 a4 f4 ff ff       	callq  4020d0 <_ZNKSsixEm@plt>
  402c2c:	0f b6 00             	movzbl (%rax),%eax
  402c2f:	3c 0d                	cmp    $0xd,%al
  402c31:	74 07                	je     402c3a <_ZN9TestSuite11processLineEiRKSs+0x122>
  402c33:	b8 01 00 00 00       	mov    $0x1,%eax
  402c38:	eb 05                	jmp    402c3f <_ZN9TestSuite11processLineEiRKSs+0x127>
  402c3a:	b8 00 00 00 00       	mov    $0x0,%eax
  402c3f:	84 c0                	test   %al,%al
  402c41:	74 29                	je     402c6c <_ZN9TestSuite11processLineEiRKSs+0x154>
  402c43:	8b 45 e8             	mov    -0x18(%rbp),%eax
  402c46:	48 63 d0             	movslq %eax,%rdx
  402c49:	48 8b 45 b8          	mov    -0x48(%rbp),%rax
  402c4d:	48 89 d6             	mov    %rdx,%rsi
  402c50:	48 89 c7             	mov    %rax,%rdi
  402c53:	e8 78 f4 ff ff       	callq  4020d0 <_ZNKSsixEm@plt>
  402c58:	0f b6 00             	movzbl (%rax),%eax
  402c5b:	0f be d0             	movsbl %al,%edx
  402c5e:	48 8d 45 d0          	lea    -0x30(%rbp),%rax
  402c62:	89 d6                	mov    %edx,%esi
  402c64:	48 89 c7             	mov    %rax,%rdi
  402c67:	e8 f4 f1 ff ff       	callq  401e60 <_ZNSspLEc@plt>
  402c6c:	83 45 e8 01          	addl   $0x1,-0x18(%rbp)
  402c70:	8b 45 e8             	mov    -0x18(%rbp),%eax
  402c73:	48 63 d8             	movslq %eax,%rbx
  402c76:	48 8b 45 b8          	mov    -0x48(%rbp),%rax
  402c7a:	48 89 c7             	mov    %rax,%rdi
  402c7d:	e8 5e f2 ff ff       	callq  401ee0 <_ZNKSs4sizeEv@plt>
  402c82:	48 39 c3             	cmp    %rax,%rbx
  402c85:	0f 92 c0             	setb   %al
  402c88:	84 c0                	test   %al,%al
  402c8a:	0f 85 dc fe ff ff    	jne    402b6c <_ZN9TestSuite11processLineEiRKSs+0x54>
  402c90:	48 8d 45 d0          	lea    -0x30(%rbp),%rax
  402c94:	be e8 1a 41 00       	mov    $0x411ae8,%esi
  402c99:	48 89 c7             	mov    %rax,%rdi
  402c9c:	e8 e4 17 00 00       	callq  404485 <_ZStneIcSt11char_traitsIcESaIcEEbRKSbIT_T0_T1_EPKS3_>
  402ca1:	84 c0                	test   %al,%al
  402ca3:	74 38                	je     402cdd <_ZN9TestSuite11processLineEiRKSs+0x1c5>
  402ca5:	48 8b 45 c8          	mov    -0x38(%rbp),%rax
  402ca9:	48 8b 40 68          	mov    0x68(%rax),%rax
  402cad:	8b 55 c4             	mov    -0x3c(%rbp),%edx
  402cb0:	48 63 d2             	movslq %edx,%rdx
  402cb3:	48 c1 e2 03          	shl    $0x3,%rdx
  402cb7:	48 01 d0             	add    %rdx,%rax
  402cba:	48 8b 00             	mov    (%rax),%rax
  402cbd:	8b 55 ec             	mov    -0x14(%rbp),%edx
  402cc0:	48 63 d2             	movslq %edx,%rdx
  402cc3:	48 c1 e2 02          	shl    $0x2,%rdx
  402cc7:	48 8d 1c 10          	lea    (%rax,%rdx,1),%rbx
  402ccb:	48 8d 45 d0          	lea    -0x30(%rbp),%rax
  402ccf:	48 89 c7             	mov    %rax,%rdi
  402cd2:	e8 37 f7 ff ff       	callq  40240e <_Z13stringToFloatRKSs>
  402cd7:	66 0f 7e c0          	movd   %xmm0,%eax
  402cdb:	89 03                	mov    %eax,(%rbx)
  402cdd:	48 8d 45 d0          	lea    -0x30(%rbp),%rax
  402ce1:	48 89 c7             	mov    %rax,%rdi
  402ce4:	e8 c7 f2 ff ff       	callq  401fb0 <_ZNSsD1Ev@plt>
  402ce9:	eb 34                	jmp    402d1f <_ZN9TestSuite11processLineEiRKSs+0x207>
  402ceb:	48 89 c3             	mov    %rax,%rbx
  402cee:	48 8d 45 e7          	lea    -0x19(%rbp),%rax
  402cf2:	48 89 c7             	mov    %rax,%rdi
  402cf5:	e8 b6 f3 ff ff       	callq  4020b0 <_ZNSaIcED1Ev@plt>
  402cfa:	48 89 d8             	mov    %rbx,%rax
  402cfd:	48 89 c7             	mov    %rax,%rdi
  402d00:	e8 fb f4 ff ff       	callq  402200 <_Unwind_Resume@plt>
  402d05:	48 89 c3             	mov    %rax,%rbx
  402d08:	48 8d 45 d0          	lea    -0x30(%rbp),%rax
  402d0c:	48 89 c7             	mov    %rax,%rdi
  402d0f:	e8 9c f2 ff ff       	callq  401fb0 <_ZNSsD1Ev@plt>
  402d14:	48 89 d8             	mov    %rbx,%rax
  402d17:	48 89 c7             	mov    %rax,%rdi
  402d1a:	e8 e1 f4 ff ff       	callq  402200 <_Unwind_Resume@plt>
  402d1f:	48 83 c4 48          	add    $0x48,%rsp
  402d23:	5b                   	pop    %rbx
  402d24:	5d                   	pop    %rbp
  402d25:	c3                   	retq   

0000000000402d26 <_ZN9TestSuiteC1ESs>:
  402d26:	55                   	push   %rbp
  402d27:	48 89 e5             	mov    %rsp,%rbp
  402d2a:	53                   	push   %rbx
  402d2b:	48 81 ec 58 02 00 00 	sub    $0x258,%rsp
  402d32:	48 89 bd a8 fd ff ff 	mov    %rdi,-0x258(%rbp)
  402d39:	48 89 b5 a0 fd ff ff 	mov    %rsi,-0x260(%rbp)
  402d40:	48 8b 85 a8 fd ff ff 	mov    -0x258(%rbp),%rax
  402d47:	48 c7 00 30 1b 41 00 	movq   $0x411b30,(%rax)
  402d4e:	48 8b 85 a8 fd ff ff 	mov    -0x258(%rbp),%rax
  402d55:	48 83 c0 08          	add    $0x8,%rax
  402d59:	48 89 c7             	mov    %rax,%rdi
  402d5c:	e8 67 17 00 00       	callq  4044c8 <_ZNSt3mapISsiSt4lessISsESaISt4pairIKSsiEEEC1Ev>
  402d61:	48 8b 85 a8 fd ff ff 	mov    -0x258(%rbp),%rax
  402d68:	48 83 c0 38          	add    $0x38,%rax
  402d6c:	48 89 c7             	mov    %rax,%rdi
  402d6f:	e8 6e 17 00 00       	callq  4044e2 <_ZNSt3mapIiSsSt4lessIiESaISt4pairIKiSsEEEC1Ev>
  402d74:	48 8b 85 a8 fd ff ff 	mov    -0x258(%rbp),%rax
  402d7b:	48 83 c0 70          	add    $0x70,%rax
  402d7f:	48 89 c7             	mov    %rax,%rdi
  402d82:	e8 75 17 00 00       	callq  4044fc <_ZNSt6vectorIiSaIiEEC1Ev>
  402d87:	48 8b 85 a8 fd ff ff 	mov    -0x258(%rbp),%rax
  402d8e:	48 05 88 00 00 00    	add    $0x88,%rax
  402d94:	48 89 c7             	mov    %rax,%rdi
  402d97:	e8 60 17 00 00       	callq  4044fc <_ZNSt6vectorIiSaIiEEC1Ev>
  402d9c:	48 8b 95 a0 fd ff ff 	mov    -0x260(%rbp),%rdx
  402da3:	48 8d 45 d0          	lea    -0x30(%rbp),%rax
  402da7:	48 89 d6             	mov    %rdx,%rsi
  402daa:	48 89 c7             	mov    %rax,%rdi
  402dad:	e8 9e f1 ff ff       	callq  401f50 <_ZNSsC1ERKSs@plt>
  402db2:	48 8d 55 d0          	lea    -0x30(%rbp),%rdx
  402db6:	48 8b 85 a8 fd ff ff 	mov    -0x258(%rbp),%rax
  402dbd:	48 89 d6             	mov    %rdx,%rsi
  402dc0:	48 89 c7             	mov    %rax,%rdi
  402dc3:	e8 f2 fa ff ff       	callq  4028ba <_ZN9TestSuite14allocateMemoryESs>
  402dc8:	48 8d 45 d0          	lea    -0x30(%rbp),%rax
  402dcc:	48 89 c7             	mov    %rax,%rdi
  402dcf:	e8 dc f1 ff ff       	callq  401fb0 <_ZNSsD1Ev@plt>
  402dd4:	48 8b 85 a0 fd ff ff 	mov    -0x260(%rbp),%rax
  402ddb:	48 89 c7             	mov    %rax,%rdi
  402dde:	e8 ad f0 ff ff       	callq  401e90 <_ZNKSs5c_strEv@plt>
  402de3:	48 89 c1             	mov    %rax,%rcx
  402de6:	48 8d 85 b0 fd ff ff 	lea    -0x250(%rbp),%rax
  402ded:	ba 08 00 00 00       	mov    $0x8,%edx
  402df2:	48 89 ce             	mov    %rcx,%rsi
  402df5:	48 89 c7             	mov    %rax,%rdi
  402df8:	e8 03 f3 ff ff       	callq  402100 <_ZNSt14basic_ifstreamIcSt11char_traitsIcEEC1EPKcSt13_Ios_Openmode@plt>
  402dfd:	48 8d 45 c0          	lea    -0x40(%rbp),%rax
  402e01:	48 89 c7             	mov    %rax,%rdi
  402e04:	e8 e7 ef ff ff       	callq  401df0 <_ZNSsC1Ev@plt>
  402e09:	c7 45 bc 00 00 00 00 	movl   $0x0,-0x44(%rbp)
  402e10:	c7 45 e4 00 00 00 00 	movl   $0x0,-0x1c(%rbp)
  402e17:	48 8b 85 a8 fd ff ff 	mov    -0x258(%rbp),%rax
  402e1e:	48 8d 50 70          	lea    0x70(%rax),%rdx
  402e22:	48 8d 45 e4          	lea    -0x1c(%rbp),%rax
  402e26:	48 89 c6             	mov    %rax,%rsi
  402e29:	48 89 d7             	mov    %rdx,%rdi
  402e2c:	e8 e5 16 00 00       	callq  404516 <_ZNSt6vectorIiSaIiEE9push_backERKi>
  402e31:	48 8d 85 b0 fd ff ff 	lea    -0x250(%rbp),%rax
  402e38:	48 89 c7             	mov    %rax,%rdi
  402e3b:	e8 f0 f3 ff ff       	callq  402230 <_ZNSt14basic_ifstreamIcSt11char_traitsIcEE7is_openEv@plt>
  402e40:	84 c0                	test   %al,%al
  402e42:	0f 84 00 01 00 00    	je     402f48 <_ZN9TestSuiteC1ESs+0x222>
  402e48:	48 8d 55 c0          	lea    -0x40(%rbp),%rdx
  402e4c:	48 8d 85 b0 fd ff ff 	lea    -0x250(%rbp),%rax
  402e53:	48 89 d6             	mov    %rdx,%rsi
  402e56:	48 89 c7             	mov    %rax,%rdi
  402e59:	e8 12 f0 ff ff       	callq  401e70 <_ZSt7getlineIcSt11char_traitsIcESaIcEERSt13basic_istreamIT_T0_ES7_RSbIS4_S5_T1_E@plt>
  402e5e:	e9 8e 00 00 00       	jmpq   402ef1 <_ZN9TestSuiteC1ESs+0x1cb>
  402e63:	48 8d 55 c0          	lea    -0x40(%rbp),%rdx
  402e67:	48 8d 85 b0 fd ff ff 	lea    -0x250(%rbp),%rax
  402e6e:	48 89 d6             	mov    %rdx,%rsi
  402e71:	48 89 c7             	mov    %rax,%rdi
  402e74:	e8 f7 ef ff ff       	callq  401e70 <_ZSt7getlineIcSt11char_traitsIcESaIcEERSt13basic_istreamIT_T0_ES7_RSbIS4_S5_T1_E@plt>
  402e79:	48 8d 45 c0          	lea    -0x40(%rbp),%rax
  402e7d:	be e8 1a 41 00       	mov    $0x411ae8,%esi
  402e82:	48 89 c7             	mov    %rax,%rdi
  402e85:	e8 fb 15 00 00       	callq  404485 <_ZStneIcSt11char_traitsIcESaIcEEbRKSbIT_T0_T1_EPKS3_>
  402e8a:	84 c0                	test   %al,%al
  402e8c:	74 23                	je     402eb1 <_ZN9TestSuiteC1ESs+0x18b>
  402e8e:	8b 4d bc             	mov    -0x44(%rbp),%ecx
  402e91:	48 8d 55 c0          	lea    -0x40(%rbp),%rdx
  402e95:	48 8b 85 a8 fd ff ff 	mov    -0x258(%rbp),%rax
  402e9c:	89 ce                	mov    %ecx,%esi
  402e9e:	48 89 c7             	mov    %rax,%rdi
  402ea1:	e8 72 fc ff ff       	callq  402b18 <_ZN9TestSuite11processLineEiRKSs>
  402ea6:	8b 45 bc             	mov    -0x44(%rbp),%eax
  402ea9:	83 c0 01             	add    $0x1,%eax
  402eac:	89 45 bc             	mov    %eax,-0x44(%rbp)
  402eaf:	eb 40                	jmp    402ef1 <_ZN9TestSuiteC1ESs+0x1cb>
  402eb1:	8b 45 bc             	mov    -0x44(%rbp),%eax
  402eb4:	83 e8 01             	sub    $0x1,%eax
  402eb7:	89 45 e8             	mov    %eax,-0x18(%rbp)
  402eba:	48 8b 85 a8 fd ff ff 	mov    -0x258(%rbp),%rax
  402ec1:	48 8d 90 88 00 00 00 	lea    0x88(%rax),%rdx
  402ec8:	48 8d 45 e8          	lea    -0x18(%rbp),%rax
  402ecc:	48 89 c6             	mov    %rax,%rsi
  402ecf:	48 89 d7             	mov    %rdx,%rdi
  402ed2:	e8 3f 16 00 00       	callq  404516 <_ZNSt6vectorIiSaIiEE9push_backERKi>
  402ed7:	48 8b 85 a8 fd ff ff 	mov    -0x258(%rbp),%rax
  402ede:	48 8d 50 70          	lea    0x70(%rax),%rdx
  402ee2:	48 8d 45 bc          	lea    -0x44(%rbp),%rax
  402ee6:	48 89 c6             	mov    %rax,%rsi
  402ee9:	48 89 d7             	mov    %rdx,%rdi
  402eec:	e8 25 16 00 00       	callq  404516 <_ZNSt6vectorIiSaIiEE9push_backERKi>
  402ef1:	48 8d 85 b0 fd ff ff 	lea    -0x250(%rbp),%rax
  402ef8:	48 05 00 01 00 00    	add    $0x100,%rax
  402efe:	48 89 c7             	mov    %rax,%rdi
  402f01:	e8 3a f1 ff ff       	callq  402040 <_ZNKSt9basic_iosIcSt11char_traitsIcEE3eofEv@plt>
  402f06:	83 f0 01             	xor    $0x1,%eax
  402f09:	84 c0                	test   %al,%al
  402f0b:	0f 85 52 ff ff ff    	jne    402e63 <_ZN9TestSuiteC1ESs+0x13d>
  402f11:	8b 45 bc             	mov    -0x44(%rbp),%eax
  402f14:	83 e8 01             	sub    $0x1,%eax
  402f17:	89 45 ec             	mov    %eax,-0x14(%rbp)
  402f1a:	48 8b 85 a8 fd ff ff 	mov    -0x258(%rbp),%rax
  402f21:	48 8d 90 88 00 00 00 	lea    0x88(%rax),%rdx
  402f28:	48 8d 45 ec          	lea    -0x14(%rbp),%rax
  402f2c:	48 89 c6             	mov    %rax,%rsi
  402f2f:	48 89 d7             	mov    %rdx,%rdi
  402f32:	e8 df 15 00 00       	callq  404516 <_ZNSt6vectorIiSaIiEE9push_backERKi>
  402f37:	48 8d 85 b0 fd ff ff 	lea    -0x250(%rbp),%rax
  402f3e:	48 89 c7             	mov    %rax,%rdi
  402f41:	e8 da ee ff ff       	callq  401e20 <_ZNSt14basic_ifstreamIcSt11char_traitsIcEE5closeEv@plt>
  402f46:	eb 3b                	jmp    402f83 <_ZN9TestSuiteC1ESs+0x25d>
  402f48:	be e9 1a 41 00       	mov    $0x411ae9,%esi
  402f4d:	bf 80 a5 61 00       	mov    $0x61a580,%edi
  402f52:	e8 39 f0 ff ff       	callq  401f90 <_ZStlsISt11char_traitsIcEERSt13basic_ostreamIcT_ES5_PKc@plt>
  402f57:	48 89 c2             	mov    %rax,%rdx
  402f5a:	48 8b 85 a0 fd ff ff 	mov    -0x260(%rbp),%rax
  402f61:	48 89 c6             	mov    %rax,%rsi
  402f64:	48 89 d7             	mov    %rdx,%rdi
  402f67:	e8 24 f1 ff ff       	callq  402090 <_ZStlsIcSt11char_traitsIcESaIcEERSt13basic_ostreamIT_T0_ES7_RKSbIS4_S5_T1_E@plt>
  402f6c:	be 90 21 40 00       	mov    $0x402190,%esi
  402f71:	48 89 c7             	mov    %rax,%rdi
  402f74:	e8 97 f1 ff ff       	callq  402110 <_ZNSolsEPFRSoS_E@plt>
  402f79:	bf 01 00 00 00       	mov    $0x1,%edi
  402f7e:	e8 3d ef ff ff       	callq  401ec0 <exit@plt>
  402f83:	48 8d 45 c0          	lea    -0x40(%rbp),%rax
  402f87:	48 89 c7             	mov    %rax,%rdi
  402f8a:	e8 21 f0 ff ff       	callq  401fb0 <_ZNSsD1Ev@plt>
  402f8f:	48 8d 85 b0 fd ff ff 	lea    -0x250(%rbp),%rax
  402f96:	48 89 c7             	mov    %rax,%rdi
  402f99:	e8 62 f0 ff ff       	callq  402000 <_ZNSt14basic_ifstreamIcSt11char_traitsIcEED1Ev@plt>
  402f9e:	e9 a1 00 00 00       	jmpq   403044 <_ZN9TestSuiteC1ESs+0x31e>
  402fa3:	48 89 c3             	mov    %rax,%rbx
  402fa6:	48 8d 45 d0          	lea    -0x30(%rbp),%rax
  402faa:	48 89 c7             	mov    %rax,%rdi
  402fad:	e8 fe ef ff ff       	callq  401fb0 <_ZNSsD1Ev@plt>
  402fb2:	eb 28                	jmp    402fdc <_ZN9TestSuiteC1ESs+0x2b6>
  402fb4:	48 89 c3             	mov    %rax,%rbx
  402fb7:	48 8d 45 c0          	lea    -0x40(%rbp),%rax
  402fbb:	48 89 c7             	mov    %rax,%rdi
  402fbe:	e8 ed ef ff ff       	callq  401fb0 <_ZNSsD1Ev@plt>
  402fc3:	eb 03                	jmp    402fc8 <_ZN9TestSuiteC1ESs+0x2a2>
  402fc5:	48 89 c3             	mov    %rax,%rbx
  402fc8:	48 8d 85 b0 fd ff ff 	lea    -0x250(%rbp),%rax
  402fcf:	48 89 c7             	mov    %rax,%rdi
  402fd2:	e8 29 f0 ff ff       	callq  402000 <_ZNSt14basic_ifstreamIcSt11char_traitsIcEED1Ev@plt>
  402fd7:	eb 03                	jmp    402fdc <_ZN9TestSuiteC1ESs+0x2b6>
  402fd9:	48 89 c3             	mov    %rax,%rbx
  402fdc:	48 8b 85 a8 fd ff ff 	mov    -0x258(%rbp),%rax
  402fe3:	48 05 88 00 00 00    	add    $0x88,%rax
  402fe9:	48 89 c7             	mov    %rax,%rdi
  402fec:	e8 59 11 00 00       	callq  40414a <_ZNSt6vectorIiSaIiEED1Ev>
  402ff1:	eb 03                	jmp    402ff6 <_ZN9TestSuiteC1ESs+0x2d0>
  402ff3:	48 89 c3             	mov    %rax,%rbx
  402ff6:	48 8b 85 a8 fd ff ff 	mov    -0x258(%rbp),%rax
  402ffd:	48 83 c0 70          	add    $0x70,%rax
  403001:	48 89 c7             	mov    %rax,%rdi
  403004:	e8 41 11 00 00       	callq  40414a <_ZNSt6vectorIiSaIiEED1Ev>
  403009:	eb 03                	jmp    40300e <_ZN9TestSuiteC1ESs+0x2e8>
  40300b:	48 89 c3             	mov    %rax,%rbx
  40300e:	48 8b 85 a8 fd ff ff 	mov    -0x258(%rbp),%rax
  403015:	48 83 c0 38          	add    $0x38,%rax
  403019:	48 89 c7             	mov    %rax,%rdi
  40301c:	e8 27 10 00 00       	callq  404048 <_ZNSt3mapIiSsSt4lessIiESaISt4pairIKiSsEEED1Ev>
  403021:	eb 03                	jmp    403026 <_ZN9TestSuiteC1ESs+0x300>
  403023:	48 89 c3             	mov    %rax,%rbx
  403026:	48 8b 85 a8 fd ff ff 	mov    -0x258(%rbp),%rax
  40302d:	48 83 c0 08          	add    $0x8,%rax
  403031:	48 89 c7             	mov    %rax,%rdi
  403034:	e8 f5 0f 00 00       	callq  40402e <_ZNSt3mapISsiSt4lessISsESaISt4pairIKSsiEEED1Ev>
  403039:	48 89 d8             	mov    %rbx,%rax
  40303c:	48 89 c7             	mov    %rax,%rdi
  40303f:	e8 bc f1 ff ff       	callq  402200 <_Unwind_Resume@plt>
  403044:	48 81 c4 58 02 00 00 	add    $0x258,%rsp
  40304b:	5b                   	pop    %rbx
  40304c:	5d                   	pop    %rbp
  40304d:	c3                   	retq   

000000000040304e <_ZN9TestSuite10getColumnsERKSsPS_>:
  40304e:	55                   	push   %rbp
  40304f:	48 89 e5             	mov    %rsp,%rbp
  403052:	41 54                	push   %r12
  403054:	53                   	push   %rbx
  403055:	48 81 ec 90 00 00 00 	sub    $0x90,%rsp
  40305c:	48 89 bd 78 ff ff ff 	mov    %rdi,-0x88(%rbp)
  403063:	48 89 b5 70 ff ff ff 	mov    %rsi,-0x90(%rbp)
  40306a:	48 89 95 68 ff ff ff 	mov    %rdx,-0x98(%rbp)
  403071:	bf 18 00 00 00       	mov    $0x18,%edi
  403076:	e8 75 f1 ff ff       	callq  4021f0 <_Znwm@plt>
  40307b:	48 89 c3             	mov    %rax,%rbx
  40307e:	48 89 df             	mov    %rbx,%rdi
  403081:	e8 76 14 00 00       	callq  4044fc <_ZNSt6vectorIiSaIiEEC1Ev>
  403086:	48 89 5d e0          	mov    %rbx,-0x20(%rbp)
  40308a:	48 8d 45 9f          	lea    -0x61(%rbp),%rax
  40308e:	48 89 c7             	mov    %rax,%rdi
  403091:	e8 2a f1 ff ff       	callq  4021c0 <_ZNSaIcEC1Ev@plt>
  403096:	48 8d 55 9f          	lea    -0x61(%rbp),%rdx
  40309a:	48 8d 45 90          	lea    -0x70(%rbp),%rax
  40309e:	be e8 1a 41 00       	mov    $0x411ae8,%esi
  4030a3:	48 89 c7             	mov    %rax,%rdi
  4030a6:	e8 45 ef ff ff       	callq  401ff0 <_ZNSsC1EPKcRKSaIcE@plt>
  4030ab:	48 8d 45 9f          	lea    -0x61(%rbp),%rax
  4030af:	48 89 c7             	mov    %rax,%rdi
  4030b2:	e8 f9 ef ff ff       	callq  4020b0 <_ZNSaIcED1Ev@plt>
  4030b7:	c7 45 8c 00 00 00 00 	movl   $0x0,-0x74(%rbp)
  4030be:	c7 45 ec 00 00 00 00 	movl   $0x0,-0x14(%rbp)
  4030c5:	e9 3f 01 00 00       	jmpq   403209 <_ZN9TestSuite10getColumnsERKSsPS_+0x1bb>
  4030ca:	8b 45 ec             	mov    -0x14(%rbp),%eax
  4030cd:	48 63 d0             	movslq %eax,%rdx
  4030d0:	48 8b 85 70 ff ff ff 	mov    -0x90(%rbp),%rax
  4030d7:	48 89 d6             	mov    %rdx,%rsi
  4030da:	48 89 c7             	mov    %rax,%rdi
  4030dd:	e8 ee ef ff ff       	callq  4020d0 <_ZNKSsixEm@plt>
  4030e2:	0f b6 00             	movzbl (%rax),%eax
  4030e5:	3c 2c                	cmp    $0x2c,%al
  4030e7:	0f 94 c0             	sete   %al
  4030ea:	84 c0                	test   %al,%al
  4030ec:	74 7e                	je     40316c <_ZN9TestSuite10getColumnsERKSsPS_+0x11e>
  4030ee:	48 8b 85 68 ff ff ff 	mov    -0x98(%rbp),%rax
  4030f5:	48 83 c0 08          	add    $0x8,%rax
  4030f9:	48 89 c7             	mov    %rax,%rdi
  4030fc:	e8 b5 14 00 00       	callq  4045b6 <_ZNSt3mapISsiSt4lessISsESaISt4pairIKSsiEEE3endEv>
  403101:	48 89 45 a0          	mov    %rax,-0x60(%rbp)
  403105:	48 8b 85 68 ff ff ff 	mov    -0x98(%rbp),%rax
  40310c:	48 8d 50 08          	lea    0x8(%rax),%rdx
  403110:	48 8d 45 90          	lea    -0x70(%rbp),%rax
  403114:	48 89 c6             	mov    %rax,%rsi
  403117:	48 89 d7             	mov    %rdx,%rdi
  40311a:	e8 71 14 00 00       	callq  404590 <_ZNSt3mapISsiSt4lessISsESaISt4pairIKSsiEEE4findERS3_>
  40311f:	48 89 45 b0          	mov    %rax,-0x50(%rbp)
  403123:	48 8d 55 a0          	lea    -0x60(%rbp),%rdx
  403127:	48 8d 45 b0          	lea    -0x50(%rbp),%rax
  40312b:	48 89 d6             	mov    %rdx,%rsi
  40312e:	48 89 c7             	mov    %rax,%rdi
  403131:	e8 9a 14 00 00       	callq  4045d0 <_ZNKSt17_Rb_tree_iteratorISt4pairIKSsiEEneERKS3_>
  403136:	84 c0                	test   %al,%al
  403138:	74 13                	je     40314d <_ZN9TestSuite10getColumnsERKSsPS_+0xff>
  40313a:	48 8d 55 8c          	lea    -0x74(%rbp),%rdx
  40313e:	48 8b 45 e0          	mov    -0x20(%rbp),%rax
  403142:	48 89 d6             	mov    %rdx,%rsi
  403145:	48 89 c7             	mov    %rax,%rdi
  403148:	e8 c9 13 00 00       	callq  404516 <_ZNSt6vectorIiSaIiEE9push_backERKi>
  40314d:	8b 45 8c             	mov    -0x74(%rbp),%eax
  403150:	83 c0 01             	add    $0x1,%eax
  403153:	89 45 8c             	mov    %eax,-0x74(%rbp)
  403156:	48 8d 45 90          	lea    -0x70(%rbp),%rax
  40315a:	be e8 1a 41 00       	mov    $0x411ae8,%esi
  40315f:	48 89 c7             	mov    %rax,%rdi
  403162:	e8 79 ec ff ff       	callq  401de0 <_ZNSsaSEPKc@plt>
  403167:	e9 99 00 00 00       	jmpq   403205 <_ZN9TestSuite10getColumnsERKSsPS_+0x1b7>
  40316c:	8b 45 ec             	mov    -0x14(%rbp),%eax
  40316f:	48 63 d0             	movslq %eax,%rdx
  403172:	48 8b 85 70 ff ff ff 	mov    -0x90(%rbp),%rax
  403179:	48 89 d6             	mov    %rdx,%rsi
  40317c:	48 89 c7             	mov    %rax,%rdi
  40317f:	e8 4c ef ff ff       	callq  4020d0 <_ZNKSsixEm@plt>
  403184:	0f b6 00             	movzbl (%rax),%eax
  403187:	3c 20                	cmp    $0x20,%al
  403189:	74 45                	je     4031d0 <_ZN9TestSuite10getColumnsERKSsPS_+0x182>
  40318b:	8b 45 ec             	mov    -0x14(%rbp),%eax
  40318e:	48 63 d0             	movslq %eax,%rdx
  403191:	48 8b 85 70 ff ff ff 	mov    -0x90(%rbp),%rax
  403198:	48 89 d6             	mov    %rdx,%rsi
  40319b:	48 89 c7             	mov    %rax,%rdi
  40319e:	e8 2d ef ff ff       	callq  4020d0 <_ZNKSsixEm@plt>
  4031a3:	0f b6 00             	movzbl (%rax),%eax
  4031a6:	3c 0a                	cmp    $0xa,%al
  4031a8:	74 26                	je     4031d0 <_ZN9TestSuite10getColumnsERKSsPS_+0x182>
  4031aa:	8b 45 ec             	mov    -0x14(%rbp),%eax
  4031ad:	48 63 d0             	movslq %eax,%rdx
  4031b0:	48 8b 85 70 ff ff ff 	mov    -0x90(%rbp),%rax
  4031b7:	48 89 d6             	mov    %rdx,%rsi
  4031ba:	48 89 c7             	mov    %rax,%rdi
  4031bd:	e8 0e ef ff ff       	callq  4020d0 <_ZNKSsixEm@plt>
  4031c2:	0f b6 00             	movzbl (%rax),%eax
  4031c5:	3c 0d                	cmp    $0xd,%al
  4031c7:	74 07                	je     4031d0 <_ZN9TestSuite10getColumnsERKSsPS_+0x182>
  4031c9:	b8 01 00 00 00       	mov    $0x1,%eax
  4031ce:	eb 05                	jmp    4031d5 <_ZN9TestSuite10getColumnsERKSsPS_+0x187>
  4031d0:	b8 00 00 00 00       	mov    $0x0,%eax
  4031d5:	84 c0                	test   %al,%al
  4031d7:	74 2c                	je     403205 <_ZN9TestSuite10getColumnsERKSsPS_+0x1b7>
  4031d9:	8b 45 ec             	mov    -0x14(%rbp),%eax
  4031dc:	48 63 d0             	movslq %eax,%rdx
  4031df:	48 8b 85 70 ff ff ff 	mov    -0x90(%rbp),%rax
  4031e6:	48 89 d6             	mov    %rdx,%rsi
  4031e9:	48 89 c7             	mov    %rax,%rdi
  4031ec:	e8 df ee ff ff       	callq  4020d0 <_ZNKSsixEm@plt>
  4031f1:	0f b6 00             	movzbl (%rax),%eax
  4031f4:	0f be d0             	movsbl %al,%edx
  4031f7:	48 8d 45 90          	lea    -0x70(%rbp),%rax
  4031fb:	89 d6                	mov    %edx,%esi
  4031fd:	48 89 c7             	mov    %rax,%rdi
  403200:	e8 5b ec ff ff       	callq  401e60 <_ZNSspLEc@plt>
  403205:	83 45 ec 01          	addl   $0x1,-0x14(%rbp)
  403209:	8b 45 ec             	mov    -0x14(%rbp),%eax
  40320c:	48 63 d8             	movslq %eax,%rbx
  40320f:	48 8b 85 70 ff ff ff 	mov    -0x90(%rbp),%rax
  403216:	48 89 c7             	mov    %rax,%rdi
  403219:	e8 c2 ec ff ff       	callq  401ee0 <_ZNKSs4sizeEv@plt>
  40321e:	48 39 c3             	cmp    %rax,%rbx
  403221:	0f 92 c0             	setb   %al
  403224:	84 c0                	test   %al,%al
  403226:	0f 85 9e fe ff ff    	jne    4030ca <_ZN9TestSuite10getColumnsERKSsPS_+0x7c>
  40322c:	bb 00 00 00 00       	mov    $0x0,%ebx
  403231:	41 bc 00 00 00 00    	mov    $0x0,%r12d
  403237:	48 8d 45 90          	lea    -0x70(%rbp),%rax
  40323b:	be e8 1a 41 00       	mov    $0x411ae8,%esi
  403240:	48 89 c7             	mov    %rax,%rdi
  403243:	e8 3d 12 00 00       	callq  404485 <_ZStneIcSt11char_traitsIcESaIcEEbRKSbIT_T0_T1_EPKS3_>
  403248:	84 c0                	test   %al,%al
  40324a:	74 5e                	je     4032aa <_ZN9TestSuite10getColumnsERKSsPS_+0x25c>
  40324c:	48 8b 85 68 ff ff ff 	mov    -0x98(%rbp),%rax
  403253:	48 83 c0 08          	add    $0x8,%rax
  403257:	48 89 c7             	mov    %rax,%rdi
  40325a:	e8 57 13 00 00       	callq  4045b6 <_ZNSt3mapISsiSt4lessISsESaISt4pairIKSsiEEE3endEv>
  40325f:	48 89 45 c0          	mov    %rax,-0x40(%rbp)
  403263:	bb 01 00 00 00       	mov    $0x1,%ebx
  403268:	48 8b 85 68 ff ff ff 	mov    -0x98(%rbp),%rax
  40326f:	48 8d 50 08          	lea    0x8(%rax),%rdx
  403273:	48 8d 45 90          	lea    -0x70(%rbp),%rax
  403277:	48 89 c6             	mov    %rax,%rsi
  40327a:	48 89 d7             	mov    %rdx,%rdi
  40327d:	e8 0e 13 00 00       	callq  404590 <_ZNSt3mapISsiSt4lessISsESaISt4pairIKSsiEEE4findERS3_>
  403282:	48 89 45 d0          	mov    %rax,-0x30(%rbp)
  403286:	41 bc 01 00 00 00    	mov    $0x1,%r12d
  40328c:	48 8d 55 c0          	lea    -0x40(%rbp),%rdx
  403290:	48 8d 45 d0          	lea    -0x30(%rbp),%rax
  403294:	48 89 d6             	mov    %rdx,%rsi
  403297:	48 89 c7             	mov    %rax,%rdi
  40329a:	e8 31 13 00 00       	callq  4045d0 <_ZNKSt17_Rb_tree_iteratorISt4pairIKSsiEEneERKS3_>
  40329f:	84 c0                	test   %al,%al
  4032a1:	74 07                	je     4032aa <_ZN9TestSuite10getColumnsERKSsPS_+0x25c>
  4032a3:	b8 01 00 00 00       	mov    $0x1,%eax
  4032a8:	eb 05                	jmp    4032af <_ZN9TestSuite10getColumnsERKSsPS_+0x261>
  4032aa:	b8 00 00 00 00       	mov    $0x0,%eax
  4032af:	45 84 e4             	test   %r12b,%r12b
  4032b2:	84 db                	test   %bl,%bl
  4032b4:	84 c0                	test   %al,%al
  4032b6:	74 13                	je     4032cb <_ZN9TestSuite10getColumnsERKSsPS_+0x27d>
  4032b8:	48 8d 55 8c          	lea    -0x74(%rbp),%rdx
  4032bc:	48 8b 45 e0          	mov    -0x20(%rbp),%rax
  4032c0:	48 89 d6             	mov    %rdx,%rsi
  4032c3:	48 89 c7             	mov    %rax,%rdi
  4032c6:	e8 4b 12 00 00       	callq  404516 <_ZNSt6vectorIiSaIiEE9push_backERKi>
  4032cb:	48 8b 5d e0          	mov    -0x20(%rbp),%rbx
  4032cf:	48 8d 45 90          	lea    -0x70(%rbp),%rax
  4032d3:	48 89 c7             	mov    %rax,%rdi
  4032d6:	e8 d5 ec ff ff       	callq  401fb0 <_ZNSsD1Ev@plt>
  4032db:	48 89 d8             	mov    %rbx,%rax
  4032de:	eb 55                	jmp    403335 <_ZN9TestSuite10getColumnsERKSsPS_+0x2e7>
  4032e0:	49 89 c4             	mov    %rax,%r12
  4032e3:	48 89 df             	mov    %rbx,%rdi
  4032e6:	e8 c5 eb ff ff       	callq  401eb0 <_ZdlPv@plt>
  4032eb:	4c 89 e0             	mov    %r12,%rax
  4032ee:	48 89 c7             	mov    %rax,%rdi
  4032f1:	e8 0a ef ff ff       	callq  402200 <_Unwind_Resume@plt>
  4032f6:	48 89 c3             	mov    %rax,%rbx
  4032f9:	48 8d 45 9f          	lea    -0x61(%rbp),%rax
  4032fd:	48 89 c7             	mov    %rax,%rdi
  403300:	e8 ab ed ff ff       	callq  4020b0 <_ZNSaIcED1Ev@plt>
  403305:	48 89 d8             	mov    %rbx,%rax
  403308:	48 89 c7             	mov    %rax,%rdi
  40330b:	e8 f0 ee ff ff       	callq  402200 <_Unwind_Resume@plt>
  403310:	45 84 e4             	test   %r12b,%r12b
  403313:	84 db                	test   %bl,%bl
  403315:	90                   	nop
  403316:	48 89 c3             	mov    %rax,%rbx
  403319:	eb 03                	jmp    40331e <_ZN9TestSuite10getColumnsERKSsPS_+0x2d0>
  40331b:	48 89 c3             	mov    %rax,%rbx
  40331e:	48 8d 45 90          	lea    -0x70(%rbp),%rax
  403322:	48 89 c7             	mov    %rax,%rdi
  403325:	e8 86 ec ff ff       	callq  401fb0 <_ZNSsD1Ev@plt>
  40332a:	48 89 d8             	mov    %rbx,%rax
  40332d:	48 89 c7             	mov    %rax,%rdi
  403330:	e8 cb ee ff ff       	callq  402200 <_Unwind_Resume@plt>
  403335:	48 81 c4 90 00 00 00 	add    $0x90,%rsp
  40333c:	5b                   	pop    %rbx
  40333d:	41 5c                	pop    %r12
  40333f:	5d                   	pop    %rbp
  403340:	c3                   	retq   
  403341:	90                   	nop

0000000000403342 <_ZN9TestSuite14allocateMemoryESsPS_>:
  403342:	55                   	push   %rbp
  403343:	48 89 e5             	mov    %rsp,%rbp
  403346:	53                   	push   %rbx
  403347:	48 81 ec 58 02 00 00 	sub    $0x258,%rsp
  40334e:	48 89 bd b8 fd ff ff 	mov    %rdi,-0x248(%rbp)
  403355:	48 89 b5 b0 fd ff ff 	mov    %rsi,-0x250(%rbp)
  40335c:	48 89 95 a8 fd ff ff 	mov    %rdx,-0x258(%rbp)
  403363:	48 8b 85 b0 fd ff ff 	mov    -0x250(%rbp),%rax
  40336a:	48 89 c7             	mov    %rax,%rdi
  40336d:	e8 1e eb ff ff       	callq  401e90 <_ZNKSs5c_strEv@plt>
  403372:	48 89 c1             	mov    %rax,%rcx
  403375:	48 8d 85 c0 fd ff ff 	lea    -0x240(%rbp),%rax
  40337c:	ba 08 00 00 00       	mov    $0x8,%edx
  403381:	48 89 ce             	mov    %rcx,%rsi
  403384:	48 89 c7             	mov    %rax,%rdi
  403387:	e8 74 ed ff ff       	callq  402100 <_ZNSt14basic_ifstreamIcSt11char_traitsIcEEC1EPKcSt13_Ios_Openmode@plt>
  40338c:	48 8d 45 d0          	lea    -0x30(%rbp),%rax
  403390:	48 89 c7             	mov    %rax,%rdi
  403393:	e8 58 ea ff ff       	callq  401df0 <_ZNSsC1Ev@plt>
  403398:	48 8d 85 c0 fd ff ff 	lea    -0x240(%rbp),%rax
  40339f:	48 89 c7             	mov    %rax,%rdi
  4033a2:	e8 89 ee ff ff       	callq  402230 <_ZNSt14basic_ifstreamIcSt11char_traitsIcEE7is_openEv@plt>
  4033a7:	84 c0                	test   %al,%al
  4033a9:	74 48                	je     4033f3 <_ZN9TestSuite14allocateMemoryESsPS_+0xb1>
  4033ab:	48 8d 55 d0          	lea    -0x30(%rbp),%rdx
  4033af:	48 8d 85 c0 fd ff ff 	lea    -0x240(%rbp),%rax
  4033b6:	48 89 d6             	mov    %rdx,%rsi
  4033b9:	48 89 c7             	mov    %rax,%rdi
  4033bc:	e8 af ea ff ff       	callq  401e70 <_ZSt7getlineIcSt11char_traitsIcESaIcEERSt13basic_istreamIT_T0_ES7_RSbIS4_S5_T1_E@plt>
  4033c1:	48 8b 95 a8 fd ff ff 	mov    -0x258(%rbp),%rdx
  4033c8:	48 8d 4d d0          	lea    -0x30(%rbp),%rcx
  4033cc:	48 8b 85 b8 fd ff ff 	mov    -0x248(%rbp),%rax
  4033d3:	48 89 ce             	mov    %rcx,%rsi
  4033d6:	48 89 c7             	mov    %rax,%rdi
  4033d9:	e8 70 fc ff ff       	callq  40304e <_ZN9TestSuite10getColumnsERKSsPS_>
  4033de:	48 89 45 e0          	mov    %rax,-0x20(%rbp)
  4033e2:	48 8d 85 c0 fd ff ff 	lea    -0x240(%rbp),%rax
  4033e9:	48 89 c7             	mov    %rax,%rdi
  4033ec:	e8 2f ea ff ff       	callq  401e20 <_ZNSt14basic_ifstreamIcSt11char_traitsIcEE5closeEv@plt>
  4033f1:	eb 3b                	jmp    40342e <_ZN9TestSuite14allocateMemoryESsPS_+0xec>
  4033f3:	be e9 1a 41 00       	mov    $0x411ae9,%esi
  4033f8:	bf 80 a5 61 00       	mov    $0x61a580,%edi
  4033fd:	e8 8e eb ff ff       	callq  401f90 <_ZStlsISt11char_traitsIcEERSt13basic_ostreamIcT_ES5_PKc@plt>
  403402:	48 89 c2             	mov    %rax,%rdx
  403405:	48 8b 85 b0 fd ff ff 	mov    -0x250(%rbp),%rax
  40340c:	48 89 c6             	mov    %rax,%rsi
  40340f:	48 89 d7             	mov    %rdx,%rdi
  403412:	e8 79 ec ff ff       	callq  402090 <_ZStlsIcSt11char_traitsIcESaIcEERSt13basic_ostreamIT_T0_ES7_RKSbIS4_S5_T1_E@plt>
  403417:	be 90 21 40 00       	mov    $0x402190,%esi
  40341c:	48 89 c7             	mov    %rax,%rdi
  40341f:	e8 ec ec ff ff       	callq  402110 <_ZNSolsEPFRSoS_E@plt>
  403424:	bf 01 00 00 00       	mov    $0x1,%edi
  403429:	e8 92 ea ff ff       	callq  401ec0 <exit@plt>
  40342e:	48 8b 85 a8 fd ff ff 	mov    -0x258(%rbp),%rax
  403435:	8b 90 a0 00 00 00    	mov    0xa0(%rax),%edx
  40343b:	48 8b 85 b8 fd ff ff 	mov    -0x248(%rbp),%rax
  403442:	89 90 a0 00 00 00    	mov    %edx,0xa0(%rax)
  403448:	48 8b 85 a8 fd ff ff 	mov    -0x258(%rbp),%rax
  40344f:	48 8d 50 08          	lea    0x8(%rax),%rdx
  403453:	48 8b 85 b8 fd ff ff 	mov    -0x248(%rbp),%rax
  40345a:	48 83 c0 08          	add    $0x8,%rax
  40345e:	48 89 d6             	mov    %rdx,%rsi
  403461:	48 89 c7             	mov    %rax,%rdi
  403464:	e8 89 11 00 00       	callq  4045f2 <_ZNSt3mapISsiSt4lessISsESaISt4pairIKSsiEEEaSERKS6_>
  403469:	48 8b 85 a8 fd ff ff 	mov    -0x258(%rbp),%rax
  403470:	48 8d 50 38          	lea    0x38(%rax),%rdx
  403474:	48 8b 85 b8 fd ff ff 	mov    -0x248(%rbp),%rax
  40347b:	48 83 c0 38          	add    $0x38,%rax
  40347f:	48 89 d6             	mov    %rdx,%rsi
  403482:	48 89 c7             	mov    %rax,%rdi
  403485:	e8 92 11 00 00       	callq  40461c <_ZNSt3mapIiSsSt4lessIiESaISt4pairIKiSsEEEaSERKS6_>
  40348a:	48 8b 85 b8 fd ff ff 	mov    -0x248(%rbp),%rax
  403491:	8b 80 a0 00 00 00    	mov    0xa0(%rax),%eax
  403497:	48 98                	cltq   
  403499:	48 ba 00 00 00 00 00 	movabs $0xfe0000000000000,%rdx
  4034a0:	00 e0 0f 
  4034a3:	48 39 d0             	cmp    %rdx,%rax
  4034a6:	77 06                	ja     4034ae <_ZN9TestSuite14allocateMemoryESsPS_+0x16c>
  4034a8:	48 c1 e0 03          	shl    $0x3,%rax
  4034ac:	eb 07                	jmp    4034b5 <_ZN9TestSuite14allocateMemoryESsPS_+0x173>
  4034ae:	48 c7 c0 ff ff ff ff 	mov    $0xffffffffffffffff,%rax
  4034b5:	48 89 c7             	mov    %rax,%rdi
  4034b8:	e8 e3 e9 ff ff       	callq  401ea0 <_Znam@plt>
  4034bd:	48 89 c2             	mov    %rax,%rdx
  4034c0:	48 8b 85 b8 fd ff ff 	mov    -0x248(%rbp),%rax
  4034c7:	48 89 50 68          	mov    %rdx,0x68(%rax)
  4034cb:	c7 45 ec 00 00 00 00 	movl   $0x0,-0x14(%rbp)
  4034d2:	eb 57                	jmp    40352b <_ZN9TestSuite14allocateMemoryESsPS_+0x1e9>
  4034d4:	48 8b 85 b8 fd ff ff 	mov    -0x248(%rbp),%rax
  4034db:	48 8b 40 68          	mov    0x68(%rax),%rax
  4034df:	8b 55 ec             	mov    -0x14(%rbp),%edx
  4034e2:	48 63 d2             	movslq %edx,%rdx
  4034e5:	48 c1 e2 03          	shl    $0x3,%rdx
  4034e9:	48 8d 1c 10          	lea    (%rax,%rdx,1),%rbx
  4034ed:	48 8b 85 b8 fd ff ff 	mov    -0x248(%rbp),%rax
  4034f4:	48 83 c0 08          	add    $0x8,%rax
  4034f8:	48 89 c7             	mov    %rax,%rdi
  4034fb:	e8 ae 0f 00 00       	callq  4044ae <_ZNKSt3mapISsiSt4lessISsESaISt4pairIKSsiEEE4sizeEv>
  403500:	48 ba 00 00 00 00 00 	movabs $0x1fc0000000000000,%rdx
  403507:	00 c0 1f 
  40350a:	48 39 d0             	cmp    %rdx,%rax
  40350d:	77 06                	ja     403515 <_ZN9TestSuite14allocateMemoryESsPS_+0x1d3>
  40350f:	48 c1 e0 02          	shl    $0x2,%rax
  403513:	eb 07                	jmp    40351c <_ZN9TestSuite14allocateMemoryESsPS_+0x1da>
  403515:	48 c7 c0 ff ff ff ff 	mov    $0xffffffffffffffff,%rax
  40351c:	48 89 c7             	mov    %rax,%rdi
  40351f:	e8 7c e9 ff ff       	callq  401ea0 <_Znam@plt>
  403524:	48 89 03             	mov    %rax,(%rbx)
  403527:	83 45 ec 01          	addl   $0x1,-0x14(%rbp)
  40352b:	48 8b 85 b8 fd ff ff 	mov    -0x248(%rbp),%rax
  403532:	8b 80 a0 00 00 00    	mov    0xa0(%rax),%eax
  403538:	3b 45 ec             	cmp    -0x14(%rbp),%eax
  40353b:	7f 97                	jg     4034d4 <_ZN9TestSuite14allocateMemoryESsPS_+0x192>
  40353d:	48 8b 5d e0          	mov    -0x20(%rbp),%rbx
  403541:	48 8d 45 d0          	lea    -0x30(%rbp),%rax
  403545:	48 89 c7             	mov    %rax,%rdi
  403548:	e8 63 ea ff ff       	callq  401fb0 <_ZNSsD1Ev@plt>
  40354d:	48 8d 85 c0 fd ff ff 	lea    -0x240(%rbp),%rax
  403554:	48 89 c7             	mov    %rax,%rdi
  403557:	e8 a4 ea ff ff       	callq  402000 <_ZNSt14basic_ifstreamIcSt11char_traitsIcEED1Ev@plt>
  40355c:	48 89 d8             	mov    %rbx,%rax
  40355f:	eb 2e                	jmp    40358f <_ZN9TestSuite14allocateMemoryESsPS_+0x24d>
  403561:	48 89 c3             	mov    %rax,%rbx
  403564:	48 8d 45 d0          	lea    -0x30(%rbp),%rax
  403568:	48 89 c7             	mov    %rax,%rdi
  40356b:	e8 40 ea ff ff       	callq  401fb0 <_ZNSsD1Ev@plt>
  403570:	eb 03                	jmp    403575 <_ZN9TestSuite14allocateMemoryESsPS_+0x233>
  403572:	48 89 c3             	mov    %rax,%rbx
  403575:	48 8d 85 c0 fd ff ff 	lea    -0x240(%rbp),%rax
  40357c:	48 89 c7             	mov    %rax,%rdi
  40357f:	e8 7c ea ff ff       	callq  402000 <_ZNSt14basic_ifstreamIcSt11char_traitsIcEED1Ev@plt>
  403584:	48 89 d8             	mov    %rbx,%rax
  403587:	48 89 c7             	mov    %rax,%rdi
  40358a:	e8 71 ec ff ff       	callq  402200 <_Unwind_Resume@plt>
  40358f:	48 81 c4 58 02 00 00 	add    $0x258,%rsp
  403596:	5b                   	pop    %rbx
  403597:	5d                   	pop    %rbp
  403598:	c3                   	retq   
  403599:	90                   	nop

000000000040359a <_ZN9TestSuite11processLineEiRKSsPSt6vectorIiSaIiEE>:
  40359a:	55                   	push   %rbp
  40359b:	48 89 e5             	mov    %rsp,%rbp
  40359e:	53                   	push   %rbx
  40359f:	48 83 ec 48          	sub    $0x48,%rsp
  4035a3:	48 89 7d c8          	mov    %rdi,-0x38(%rbp)
  4035a7:	89 75 c4             	mov    %esi,-0x3c(%rbp)
  4035aa:	48 89 55 b8          	mov    %rdx,-0x48(%rbp)
  4035ae:	48 89 4d b0          	mov    %rcx,-0x50(%rbp)
  4035b2:	48 8d 45 df          	lea    -0x21(%rbp),%rax
  4035b6:	48 89 c7             	mov    %rax,%rdi
  4035b9:	e8 02 ec ff ff       	callq  4021c0 <_ZNSaIcEC1Ev@plt>
  4035be:	48 8d 55 df          	lea    -0x21(%rbp),%rdx
  4035c2:	48 8d 45 d0          	lea    -0x30(%rbp),%rax
  4035c6:	be e8 1a 41 00       	mov    $0x411ae8,%esi
  4035cb:	48 89 c7             	mov    %rax,%rdi
  4035ce:	e8 1d ea ff ff       	callq  401ff0 <_ZNSsC1EPKcRKSaIcE@plt>
  4035d3:	48 8d 45 df          	lea    -0x21(%rbp),%rax
  4035d7:	48 89 c7             	mov    %rax,%rdi
  4035da:	e8 d1 ea ff ff       	callq  4020b0 <_ZNSaIcED1Ev@plt>
  4035df:	c7 45 ec 00 00 00 00 	movl   $0x0,-0x14(%rbp)
  4035e6:	c7 45 e8 00 00 00 00 	movl   $0x0,-0x18(%rbp)
  4035ed:	c7 45 e4 00 00 00 00 	movl   $0x0,-0x1c(%rbp)
  4035f4:	c7 45 e0 00 00 00 00 	movl   $0x0,-0x20(%rbp)
  4035fb:	e9 51 01 00 00       	jmpq   403751 <_ZN9TestSuite11processLineEiRKSsPSt6vectorIiSaIiEE+0x1b7>
  403600:	8b 45 e0             	mov    -0x20(%rbp),%eax
  403603:	48 63 d0             	movslq %eax,%rdx
  403606:	48 8b 45 b8          	mov    -0x48(%rbp),%rax
  40360a:	48 89 d6             	mov    %rdx,%rsi
  40360d:	48 89 c7             	mov    %rax,%rdi
  403610:	e8 bb ea ff ff       	callq  4020d0 <_ZNKSsixEm@plt>
  403615:	0f b6 00             	movzbl (%rax),%eax
  403618:	3c 2c                	cmp    $0x2c,%al
  40361a:	0f 94 c0             	sete   %al
  40361d:	84 c0                	test   %al,%al
  40361f:	0f 84 9b 00 00 00    	je     4036c0 <_ZN9TestSuite11processLineEiRKSsPSt6vectorIiSaIiEE+0x126>
  403625:	8b 45 e8             	mov    -0x18(%rbp),%eax
  403628:	48 63 d0             	movslq %eax,%rdx
  40362b:	48 8b 45 b0          	mov    -0x50(%rbp),%rax
  40362f:	48 89 d6             	mov    %rdx,%rsi
  403632:	48 89 c7             	mov    %rax,%rdi
  403635:	e8 0c 10 00 00       	callq  404646 <_ZNSt6vectorIiSaIiEEixEm>
  40363a:	8b 00                	mov    (%rax),%eax
  40363c:	3b 45 ec             	cmp    -0x14(%rbp),%eax
  40363f:	0f 94 c0             	sete   %al
  403642:	84 c0                	test   %al,%al
  403644:	74 60                	je     4036a6 <_ZN9TestSuite11processLineEiRKSsPSt6vectorIiSaIiEE+0x10c>
  403646:	48 8b 45 c8          	mov    -0x38(%rbp),%rax
  40364a:	48 8b 40 68          	mov    0x68(%rax),%rax
  40364e:	8b 55 c4             	mov    -0x3c(%rbp),%edx
  403651:	48 63 d2             	movslq %edx,%rdx
  403654:	48 c1 e2 03          	shl    $0x3,%rdx
  403658:	48 01 d0             	add    %rdx,%rax
  40365b:	48 8b 00             	mov    (%rax),%rax
  40365e:	8b 55 e4             	mov    -0x1c(%rbp),%edx
  403661:	48 63 d2             	movslq %edx,%rdx
  403664:	48 c1 e2 02          	shl    $0x2,%rdx
  403668:	48 8d 1c 10          	lea    (%rax,%rdx,1),%rbx
  40366c:	48 8d 45 d0          	lea    -0x30(%rbp),%rax
  403670:	48 89 c7             	mov    %rax,%rdi
  403673:	e8 96 ed ff ff       	callq  40240e <_Z13stringToFloatRKSs>
  403678:	66 0f 7e c0          	movd   %xmm0,%eax
  40367c:	89 03                	mov    %eax,(%rbx)
  40367e:	8b 45 e8             	mov    -0x18(%rbp),%eax
  403681:	48 63 d8             	movslq %eax,%rbx
  403684:	48 8b 45 b0          	mov    -0x50(%rbp),%rax
  403688:	48 89 c7             	mov    %rax,%rdi
  40368b:	e8 d6 0f 00 00       	callq  404666 <_ZNKSt6vectorIiSaIiEE4sizeEv>
  403690:	48 83 e8 01          	sub    $0x1,%rax
  403694:	48 39 c3             	cmp    %rax,%rbx
  403697:	0f 92 c0             	setb   %al
  40369a:	84 c0                	test   %al,%al
  40369c:	74 04                	je     4036a2 <_ZN9TestSuite11processLineEiRKSsPSt6vectorIiSaIiEE+0x108>
  40369e:	83 45 e8 01          	addl   $0x1,-0x18(%rbp)
  4036a2:	83 45 e4 01          	addl   $0x1,-0x1c(%rbp)
  4036a6:	83 45 ec 01          	addl   $0x1,-0x14(%rbp)
  4036aa:	48 8d 45 d0          	lea    -0x30(%rbp),%rax
  4036ae:	be e8 1a 41 00       	mov    $0x411ae8,%esi
  4036b3:	48 89 c7             	mov    %rax,%rdi
  4036b6:	e8 25 e7 ff ff       	callq  401de0 <_ZNSsaSEPKc@plt>
  4036bb:	e9 8d 00 00 00       	jmpq   40374d <_ZN9TestSuite11processLineEiRKSsPSt6vectorIiSaIiEE+0x1b3>
  4036c0:	8b 45 e0             	mov    -0x20(%rbp),%eax
  4036c3:	48 63 d0             	movslq %eax,%rdx
  4036c6:	48 8b 45 b8          	mov    -0x48(%rbp),%rax
  4036ca:	48 89 d6             	mov    %rdx,%rsi
  4036cd:	48 89 c7             	mov    %rax,%rdi
  4036d0:	e8 fb e9 ff ff       	callq  4020d0 <_ZNKSsixEm@plt>
  4036d5:	0f b6 00             	movzbl (%rax),%eax
  4036d8:	3c 20                	cmp    $0x20,%al
  4036da:	74 3f                	je     40371b <_ZN9TestSuite11processLineEiRKSsPSt6vectorIiSaIiEE+0x181>
  4036dc:	8b 45 e0             	mov    -0x20(%rbp),%eax
  4036df:	48 63 d0             	movslq %eax,%rdx
  4036e2:	48 8b 45 b8          	mov    -0x48(%rbp),%rax
  4036e6:	48 89 d6             	mov    %rdx,%rsi
  4036e9:	48 89 c7             	mov    %rax,%rdi
  4036ec:	e8 df e9 ff ff       	callq  4020d0 <_ZNKSsixEm@plt>
  4036f1:	0f b6 00             	movzbl (%rax),%eax
  4036f4:	3c 0a                	cmp    $0xa,%al
  4036f6:	74 23                	je     40371b <_ZN9TestSuite11processLineEiRKSsPSt6vectorIiSaIiEE+0x181>
  4036f8:	8b 45 e0             	mov    -0x20(%rbp),%eax
  4036fb:	48 63 d0             	movslq %eax,%rdx
  4036fe:	48 8b 45 b8          	mov    -0x48(%rbp),%rax
  403702:	48 89 d6             	mov    %rdx,%rsi
  403705:	48 89 c7             	mov    %rax,%rdi
  403708:	e8 c3 e9 ff ff       	callq  4020d0 <_ZNKSsixEm@plt>
  40370d:	0f b6 00             	movzbl (%rax),%eax
  403710:	3c 0d                	cmp    $0xd,%al
  403712:	74 07                	je     40371b <_ZN9TestSuite11processLineEiRKSsPSt6vectorIiSaIiEE+0x181>
  403714:	b8 01 00 00 00       	mov    $0x1,%eax
  403719:	eb 05                	jmp    403720 <_ZN9TestSuite11processLineEiRKSsPSt6vectorIiSaIiEE+0x186>
  40371b:	b8 00 00 00 00       	mov    $0x0,%eax
  403720:	84 c0                	test   %al,%al
  403722:	74 29                	je     40374d <_ZN9TestSuite11processLineEiRKSsPSt6vectorIiSaIiEE+0x1b3>
  403724:	8b 45 e0             	mov    -0x20(%rbp),%eax
  403727:	48 63 d0             	movslq %eax,%rdx
  40372a:	48 8b 45 b8          	mov    -0x48(%rbp),%rax
  40372e:	48 89 d6             	mov    %rdx,%rsi
  403731:	48 89 c7             	mov    %rax,%rdi
  403734:	e8 97 e9 ff ff       	callq  4020d0 <_ZNKSsixEm@plt>
  403739:	0f b6 00             	movzbl (%rax),%eax
  40373c:	0f be d0             	movsbl %al,%edx
  40373f:	48 8d 45 d0          	lea    -0x30(%rbp),%rax
  403743:	89 d6                	mov    %edx,%esi
  403745:	48 89 c7             	mov    %rax,%rdi
  403748:	e8 13 e7 ff ff       	callq  401e60 <_ZNSspLEc@plt>
  40374d:	83 45 e0 01          	addl   $0x1,-0x20(%rbp)
  403751:	8b 45 e0             	mov    -0x20(%rbp),%eax
  403754:	48 63 d8             	movslq %eax,%rbx
  403757:	48 8b 45 b8          	mov    -0x48(%rbp),%rax
  40375b:	48 89 c7             	mov    %rax,%rdi
  40375e:	e8 7d e7 ff ff       	callq  401ee0 <_ZNKSs4sizeEv@plt>
  403763:	48 39 c3             	cmp    %rax,%rbx
  403766:	0f 92 c0             	setb   %al
  403769:	84 c0                	test   %al,%al
  40376b:	0f 85 8f fe ff ff    	jne    403600 <_ZN9TestSuite11processLineEiRKSsPSt6vectorIiSaIiEE+0x66>
  403771:	48 8d 45 d0          	lea    -0x30(%rbp),%rax
  403775:	be e8 1a 41 00       	mov    $0x411ae8,%esi
  40377a:	48 89 c7             	mov    %rax,%rdi
  40377d:	e8 03 0d 00 00       	callq  404485 <_ZStneIcSt11char_traitsIcESaIcEEbRKSbIT_T0_T1_EPKS3_>
  403782:	84 c0                	test   %al,%al
  403784:	74 59                	je     4037df <_ZN9TestSuite11processLineEiRKSsPSt6vectorIiSaIiEE+0x245>
  403786:	8b 45 e8             	mov    -0x18(%rbp),%eax
  403789:	48 63 d0             	movslq %eax,%rdx
  40378c:	48 8b 45 b0          	mov    -0x50(%rbp),%rax
  403790:	48 89 d6             	mov    %rdx,%rsi
  403793:	48 89 c7             	mov    %rax,%rdi
  403796:	e8 ab 0e 00 00       	callq  404646 <_ZNSt6vectorIiSaIiEEixEm>
  40379b:	8b 00                	mov    (%rax),%eax
  40379d:	3b 45 ec             	cmp    -0x14(%rbp),%eax
  4037a0:	0f 94 c0             	sete   %al
  4037a3:	84 c0                	test   %al,%al
  4037a5:	74 38                	je     4037df <_ZN9TestSuite11processLineEiRKSsPSt6vectorIiSaIiEE+0x245>
  4037a7:	48 8b 45 c8          	mov    -0x38(%rbp),%rax
  4037ab:	48 8b 40 68          	mov    0x68(%rax),%rax
  4037af:	8b 55 c4             	mov    -0x3c(%rbp),%edx
  4037b2:	48 63 d2             	movslq %edx,%rdx
  4037b5:	48 c1 e2 03          	shl    $0x3,%rdx
  4037b9:	48 01 d0             	add    %rdx,%rax
  4037bc:	48 8b 00             	mov    (%rax),%rax
  4037bf:	8b 55 e4             	mov    -0x1c(%rbp),%edx
  4037c2:	48 63 d2             	movslq %edx,%rdx
  4037c5:	48 c1 e2 02          	shl    $0x2,%rdx
  4037c9:	48 8d 1c 10          	lea    (%rax,%rdx,1),%rbx
  4037cd:	48 8d 45 d0          	lea    -0x30(%rbp),%rax
  4037d1:	48 89 c7             	mov    %rax,%rdi
  4037d4:	e8 35 ec ff ff       	callq  40240e <_Z13stringToFloatRKSs>
  4037d9:	66 0f 7e c0          	movd   %xmm0,%eax
  4037dd:	89 03                	mov    %eax,(%rbx)
  4037df:	48 8d 45 d0          	lea    -0x30(%rbp),%rax
  4037e3:	48 89 c7             	mov    %rax,%rdi
  4037e6:	e8 c5 e7 ff ff       	callq  401fb0 <_ZNSsD1Ev@plt>
  4037eb:	eb 34                	jmp    403821 <_ZN9TestSuite11processLineEiRKSsPSt6vectorIiSaIiEE+0x287>
  4037ed:	48 89 c3             	mov    %rax,%rbx
  4037f0:	48 8d 45 df          	lea    -0x21(%rbp),%rax
  4037f4:	48 89 c7             	mov    %rax,%rdi
  4037f7:	e8 b4 e8 ff ff       	callq  4020b0 <_ZNSaIcED1Ev@plt>
  4037fc:	48 89 d8             	mov    %rbx,%rax
  4037ff:	48 89 c7             	mov    %rax,%rdi
  403802:	e8 f9 e9 ff ff       	callq  402200 <_Unwind_Resume@plt>
  403807:	48 89 c3             	mov    %rax,%rbx
  40380a:	48 8d 45 d0          	lea    -0x30(%rbp),%rax
  40380e:	48 89 c7             	mov    %rax,%rdi
  403811:	e8 9a e7 ff ff       	callq  401fb0 <_ZNSsD1Ev@plt>
  403816:	48 89 d8             	mov    %rbx,%rax
  403819:	48 89 c7             	mov    %rax,%rdi
  40381c:	e8 df e9 ff ff       	callq  402200 <_Unwind_Resume@plt>
  403821:	48 83 c4 48          	add    $0x48,%rsp
  403825:	5b                   	pop    %rbx
  403826:	5d                   	pop    %rbp
  403827:	c3                   	retq   

0000000000403828 <_ZN9TestSuiteC1ESsPS_>:
  403828:	55                   	push   %rbp
  403829:	48 89 e5             	mov    %rsp,%rbp
  40382c:	53                   	push   %rbx
  40382d:	48 81 ec 68 02 00 00 	sub    $0x268,%rsp
  403834:	48 89 bd a8 fd ff ff 	mov    %rdi,-0x258(%rbp)
  40383b:	48 89 b5 a0 fd ff ff 	mov    %rsi,-0x260(%rbp)
  403842:	48 89 95 98 fd ff ff 	mov    %rdx,-0x268(%rbp)
  403849:	48 8b 85 a8 fd ff ff 	mov    -0x258(%rbp),%rax
  403850:	48 c7 00 30 1b 41 00 	movq   $0x411b30,(%rax)
  403857:	48 8b 85 a8 fd ff ff 	mov    -0x258(%rbp),%rax
  40385e:	48 83 c0 08          	add    $0x8,%rax
  403862:	48 89 c7             	mov    %rax,%rdi
  403865:	e8 5e 0c 00 00       	callq  4044c8 <_ZNSt3mapISsiSt4lessISsESaISt4pairIKSsiEEEC1Ev>
  40386a:	48 8b 85 a8 fd ff ff 	mov    -0x258(%rbp),%rax
  403871:	48 83 c0 38          	add    $0x38,%rax
  403875:	48 89 c7             	mov    %rax,%rdi
  403878:	e8 65 0c 00 00       	callq  4044e2 <_ZNSt3mapIiSsSt4lessIiESaISt4pairIKiSsEEEC1Ev>
  40387d:	48 8b 85 a8 fd ff ff 	mov    -0x258(%rbp),%rax
  403884:	48 83 c0 70          	add    $0x70,%rax
  403888:	48 89 c7             	mov    %rax,%rdi
  40388b:	e8 6c 0c 00 00       	callq  4044fc <_ZNSt6vectorIiSaIiEEC1Ev>
  403890:	48 8b 85 a8 fd ff ff 	mov    -0x258(%rbp),%rax
  403897:	48 05 88 00 00 00    	add    $0x88,%rax
  40389d:	48 89 c7             	mov    %rax,%rdi
  4038a0:	e8 57 0c 00 00       	callq  4044fc <_ZNSt6vectorIiSaIiEEC1Ev>
  4038a5:	48 8b 95 a0 fd ff ff 	mov    -0x260(%rbp),%rdx
  4038ac:	48 8d 45 d0          	lea    -0x30(%rbp),%rax
  4038b0:	48 89 d6             	mov    %rdx,%rsi
  4038b3:	48 89 c7             	mov    %rax,%rdi
  4038b6:	e8 95 e6 ff ff       	callq  401f50 <_ZNSsC1ERKSs@plt>
  4038bb:	48 8b 95 98 fd ff ff 	mov    -0x268(%rbp),%rdx
  4038c2:	48 8d 4d d0          	lea    -0x30(%rbp),%rcx
  4038c6:	48 8b 85 a8 fd ff ff 	mov    -0x258(%rbp),%rax
  4038cd:	48 89 ce             	mov    %rcx,%rsi
  4038d0:	48 89 c7             	mov    %rax,%rdi
  4038d3:	e8 6a fa ff ff       	callq  403342 <_ZN9TestSuite14allocateMemoryESsPS_>
  4038d8:	48 89 45 e0          	mov    %rax,-0x20(%rbp)
  4038dc:	48 8d 45 d0          	lea    -0x30(%rbp),%rax
  4038e0:	48 89 c7             	mov    %rax,%rdi
  4038e3:	e8 c8 e6 ff ff       	callq  401fb0 <_ZNSsD1Ev@plt>
  4038e8:	48 8b 85 98 fd ff ff 	mov    -0x268(%rbp),%rax
  4038ef:	48 8d 90 88 00 00 00 	lea    0x88(%rax),%rdx
  4038f6:	48 8b 85 a8 fd ff ff 	mov    -0x258(%rbp),%rax
  4038fd:	48 05 88 00 00 00    	add    $0x88,%rax
  403903:	48 89 d6             	mov    %rdx,%rsi
  403906:	48 89 c7             	mov    %rax,%rdi
  403909:	e8 7e 0d 00 00       	callq  40468c <_ZNSt6vectorIiSaIiEEaSERKS1_>
  40390e:	48 8b 85 98 fd ff ff 	mov    -0x268(%rbp),%rax
  403915:	48 8d 50 70          	lea    0x70(%rax),%rdx
  403919:	48 8b 85 a8 fd ff ff 	mov    -0x258(%rbp),%rax
  403920:	48 83 c0 70          	add    $0x70,%rax
  403924:	48 89 d6             	mov    %rdx,%rsi
  403927:	48 89 c7             	mov    %rax,%rdi
  40392a:	e8 5d 0d 00 00       	callq  40468c <_ZNSt6vectorIiSaIiEEaSERKS1_>
  40392f:	48 8b 85 a0 fd ff ff 	mov    -0x260(%rbp),%rax
  403936:	48 89 c7             	mov    %rax,%rdi
  403939:	e8 52 e5 ff ff       	callq  401e90 <_ZNKSs5c_strEv@plt>
  40393e:	48 89 c1             	mov    %rax,%rcx
  403941:	48 8d 85 b0 fd ff ff 	lea    -0x250(%rbp),%rax
  403948:	ba 08 00 00 00       	mov    $0x8,%edx
  40394d:	48 89 ce             	mov    %rcx,%rsi
  403950:	48 89 c7             	mov    %rax,%rdi
  403953:	e8 a8 e7 ff ff       	callq  402100 <_ZNSt14basic_ifstreamIcSt11char_traitsIcEEC1EPKcSt13_Ios_Openmode@plt>
  403958:	48 8d 45 c0          	lea    -0x40(%rbp),%rax
  40395c:	48 89 c7             	mov    %rax,%rdi
  40395f:	e8 8c e4 ff ff       	callq  401df0 <_ZNSsC1Ev@plt>
  403964:	c7 45 ec 00 00 00 00 	movl   $0x0,-0x14(%rbp)
  40396b:	48 8d 85 b0 fd ff ff 	lea    -0x250(%rbp),%rax
  403972:	48 89 c7             	mov    %rax,%rdi
  403975:	e8 b6 e8 ff ff       	callq  402230 <_ZNSt14basic_ifstreamIcSt11char_traitsIcEE7is_openEv@plt>
  40397a:	84 c0                	test   %al,%al
  40397c:	0f 84 8e 00 00 00    	je     403a10 <_ZN9TestSuiteC1ESsPS_+0x1e8>
  403982:	48 8d 55 c0          	lea    -0x40(%rbp),%rdx
  403986:	48 8d 85 b0 fd ff ff 	lea    -0x250(%rbp),%rax
  40398d:	48 89 d6             	mov    %rdx,%rsi
  403990:	48 89 c7             	mov    %rax,%rdi
  403993:	e8 d8 e4 ff ff       	callq  401e70 <_ZSt7getlineIcSt11char_traitsIcESaIcEERSt13basic_istreamIT_T0_ES7_RSbIS4_S5_T1_E@plt>
  403998:	eb 49                	jmp    4039e3 <_ZN9TestSuiteC1ESsPS_+0x1bb>
  40399a:	48 8d 55 c0          	lea    -0x40(%rbp),%rdx
  40399e:	48 8d 85 b0 fd ff ff 	lea    -0x250(%rbp),%rax
  4039a5:	48 89 d6             	mov    %rdx,%rsi
  4039a8:	48 89 c7             	mov    %rax,%rdi
  4039ab:	e8 c0 e4 ff ff       	callq  401e70 <_ZSt7getlineIcSt11char_traitsIcESaIcEERSt13basic_istreamIT_T0_ES7_RSbIS4_S5_T1_E@plt>
  4039b0:	48 8d 45 c0          	lea    -0x40(%rbp),%rax
  4039b4:	be e8 1a 41 00       	mov    $0x411ae8,%esi
  4039b9:	48 89 c7             	mov    %rax,%rdi
  4039bc:	e8 c4 0a 00 00       	callq  404485 <_ZStneIcSt11char_traitsIcESaIcEEbRKSbIT_T0_T1_EPKS3_>
  4039c1:	84 c0                	test   %al,%al
  4039c3:	74 1e                	je     4039e3 <_ZN9TestSuiteC1ESsPS_+0x1bb>
  4039c5:	48 8b 4d e0          	mov    -0x20(%rbp),%rcx
  4039c9:	48 8d 55 c0          	lea    -0x40(%rbp),%rdx
  4039cd:	8b 75 ec             	mov    -0x14(%rbp),%esi
  4039d0:	48 8b 85 a8 fd ff ff 	mov    -0x258(%rbp),%rax
  4039d7:	48 89 c7             	mov    %rax,%rdi
  4039da:	e8 bb fb ff ff       	callq  40359a <_ZN9TestSuite11processLineEiRKSsPSt6vectorIiSaIiEE>
  4039df:	83 45 ec 01          	addl   $0x1,-0x14(%rbp)
  4039e3:	48 8d 85 b0 fd ff ff 	lea    -0x250(%rbp),%rax
  4039ea:	48 05 00 01 00 00    	add    $0x100,%rax
  4039f0:	48 89 c7             	mov    %rax,%rdi
  4039f3:	e8 48 e6 ff ff       	callq  402040 <_ZNKSt9basic_iosIcSt11char_traitsIcEE3eofEv@plt>
  4039f8:	83 f0 01             	xor    $0x1,%eax
  4039fb:	84 c0                	test   %al,%al
  4039fd:	75 9b                	jne    40399a <_ZN9TestSuiteC1ESsPS_+0x172>
  4039ff:	48 8d 85 b0 fd ff ff 	lea    -0x250(%rbp),%rax
  403a06:	48 89 c7             	mov    %rax,%rdi
  403a09:	e8 12 e4 ff ff       	callq  401e20 <_ZNSt14basic_ifstreamIcSt11char_traitsIcEE5closeEv@plt>
  403a0e:	eb 3b                	jmp    403a4b <_ZN9TestSuiteC1ESsPS_+0x223>
  403a10:	be e9 1a 41 00       	mov    $0x411ae9,%esi
  403a15:	bf 80 a5 61 00       	mov    $0x61a580,%edi
  403a1a:	e8 71 e5 ff ff       	callq  401f90 <_ZStlsISt11char_traitsIcEERSt13basic_ostreamIcT_ES5_PKc@plt>
  403a1f:	48 89 c2             	mov    %rax,%rdx
  403a22:	48 8b 85 a0 fd ff ff 	mov    -0x260(%rbp),%rax
  403a29:	48 89 c6             	mov    %rax,%rsi
  403a2c:	48 89 d7             	mov    %rdx,%rdi
  403a2f:	e8 5c e6 ff ff       	callq  402090 <_ZStlsIcSt11char_traitsIcESaIcEERSt13basic_ostreamIT_T0_ES7_RKSbIS4_S5_T1_E@plt>
  403a34:	be 90 21 40 00       	mov    $0x402190,%esi
  403a39:	48 89 c7             	mov    %rax,%rdi
  403a3c:	e8 cf e6 ff ff       	callq  402110 <_ZNSolsEPFRSoS_E@plt>
  403a41:	bf 01 00 00 00       	mov    $0x1,%edi
  403a46:	e8 75 e4 ff ff       	callq  401ec0 <exit@plt>
  403a4b:	48 8b 5d e0          	mov    -0x20(%rbp),%rbx
  403a4f:	48 85 db             	test   %rbx,%rbx
  403a52:	74 10                	je     403a64 <_ZN9TestSuiteC1ESsPS_+0x23c>
  403a54:	48 89 df             	mov    %rbx,%rdi
  403a57:	e8 ee 06 00 00       	callq  40414a <_ZNSt6vectorIiSaIiEED1Ev>
  403a5c:	48 89 df             	mov    %rbx,%rdi
  403a5f:	e8 4c e4 ff ff       	callq  401eb0 <_ZdlPv@plt>
  403a64:	48 8d 45 c0          	lea    -0x40(%rbp),%rax
  403a68:	48 89 c7             	mov    %rax,%rdi
  403a6b:	e8 40 e5 ff ff       	callq  401fb0 <_ZNSsD1Ev@plt>
  403a70:	48 8d 85 b0 fd ff ff 	lea    -0x250(%rbp),%rax
  403a77:	48 89 c7             	mov    %rax,%rdi
  403a7a:	e8 81 e5 ff ff       	callq  402000 <_ZNSt14basic_ifstreamIcSt11char_traitsIcEED1Ev@plt>
  403a7f:	e9 a1 00 00 00       	jmpq   403b25 <_ZN9TestSuiteC1ESsPS_+0x2fd>
  403a84:	48 89 c3             	mov    %rax,%rbx
  403a87:	48 8d 45 d0          	lea    -0x30(%rbp),%rax
  403a8b:	48 89 c7             	mov    %rax,%rdi
  403a8e:	e8 1d e5 ff ff       	callq  401fb0 <_ZNSsD1Ev@plt>
  403a93:	eb 28                	jmp    403abd <_ZN9TestSuiteC1ESsPS_+0x295>
  403a95:	48 89 c3             	mov    %rax,%rbx
  403a98:	48 8d 45 c0          	lea    -0x40(%rbp),%rax
  403a9c:	48 89 c7             	mov    %rax,%rdi
  403a9f:	e8 0c e5 ff ff       	callq  401fb0 <_ZNSsD1Ev@plt>
  403aa4:	eb 03                	jmp    403aa9 <_ZN9TestSuiteC1ESsPS_+0x281>
  403aa6:	48 89 c3             	mov    %rax,%rbx
  403aa9:	48 8d 85 b0 fd ff ff 	lea    -0x250(%rbp),%rax
  403ab0:	48 89 c7             	mov    %rax,%rdi
  403ab3:	e8 48 e5 ff ff       	callq  402000 <_ZNSt14basic_ifstreamIcSt11char_traitsIcEED1Ev@plt>
  403ab8:	eb 03                	jmp    403abd <_ZN9TestSuiteC1ESsPS_+0x295>
  403aba:	48 89 c3             	mov    %rax,%rbx
  403abd:	48 8b 85 a8 fd ff ff 	mov    -0x258(%rbp),%rax
  403ac4:	48 05 88 00 00 00    	add    $0x88,%rax
  403aca:	48 89 c7             	mov    %rax,%rdi
  403acd:	e8 78 06 00 00       	callq  40414a <_ZNSt6vectorIiSaIiEED1Ev>
  403ad2:	eb 03                	jmp    403ad7 <_ZN9TestSuiteC1ESsPS_+0x2af>
  403ad4:	48 89 c3             	mov    %rax,%rbx
  403ad7:	48 8b 85 a8 fd ff ff 	mov    -0x258(%rbp),%rax
  403ade:	48 83 c0 70          	add    $0x70,%rax
  403ae2:	48 89 c7             	mov    %rax,%rdi
  403ae5:	e8 60 06 00 00       	callq  40414a <_ZNSt6vectorIiSaIiEED1Ev>
  403aea:	eb 03                	jmp    403aef <_ZN9TestSuiteC1ESsPS_+0x2c7>
  403aec:	48 89 c3             	mov    %rax,%rbx
  403aef:	48 8b 85 a8 fd ff ff 	mov    -0x258(%rbp),%rax
  403af6:	48 83 c0 38          	add    $0x38,%rax
  403afa:	48 89 c7             	mov    %rax,%rdi
  403afd:	e8 46 05 00 00       	callq  404048 <_ZNSt3mapIiSsSt4lessIiESaISt4pairIKiSsEEED1Ev>
  403b02:	eb 03                	jmp    403b07 <_ZN9TestSuiteC1ESsPS_+0x2df>
  403b04:	48 89 c3             	mov    %rax,%rbx
  403b07:	48 8b 85 a8 fd ff ff 	mov    -0x258(%rbp),%rax
  403b0e:	48 83 c0 08          	add    $0x8,%rax
  403b12:	48 89 c7             	mov    %rax,%rdi
  403b15:	e8 14 05 00 00       	callq  40402e <_ZNSt3mapISsiSt4lessISsESaISt4pairIKSsiEEED1Ev>
  403b1a:	48 89 d8             	mov    %rbx,%rax
  403b1d:	48 89 c7             	mov    %rax,%rdi
  403b20:	e8 db e6 ff ff       	callq  402200 <_Unwind_Resume@plt>
  403b25:	48 81 c4 68 02 00 00 	add    $0x268,%rsp
  403b2c:	5b                   	pop    %rbx
  403b2d:	5d                   	pop    %rbp
  403b2e:	c3                   	retq   
  403b2f:	90                   	nop

0000000000403b30 <_ZN9TestSuite8getValueEiiRKSs>:
  403b30:	55                   	push   %rbp
  403b31:	48 89 e5             	mov    %rsp,%rbp
  403b34:	53                   	push   %rbx
  403b35:	48 83 ec 28          	sub    $0x28,%rsp
  403b39:	48 89 7d e8          	mov    %rdi,-0x18(%rbp)
  403b3d:	89 75 e4             	mov    %esi,-0x1c(%rbp)
  403b40:	89 55 e0             	mov    %edx,-0x20(%rbp)
  403b43:	48 89 4d d8          	mov    %rcx,-0x28(%rbp)
  403b47:	48 8b 45 e8          	mov    -0x18(%rbp),%rax
  403b4b:	48 8b 58 68          	mov    0x68(%rax),%rbx
  403b4f:	8b 45 e4             	mov    -0x1c(%rbp),%eax
  403b52:	48 98                	cltq   
  403b54:	48 8b 55 e8          	mov    -0x18(%rbp),%rdx
  403b58:	48 83 c2 70          	add    $0x70,%rdx
  403b5c:	48 89 c6             	mov    %rax,%rsi
  403b5f:	48 89 d7             	mov    %rdx,%rdi
  403b62:	e8 df 0a 00 00       	callq  404646 <_ZNSt6vectorIiSaIiEEixEm>
  403b67:	8b 10                	mov    (%rax),%edx
  403b69:	8b 45 e0             	mov    -0x20(%rbp),%eax
  403b6c:	01 d0                	add    %edx,%eax
  403b6e:	48 98                	cltq   
  403b70:	48 c1 e0 03          	shl    $0x3,%rax
  403b74:	48 01 d8             	add    %rbx,%rax
  403b77:	48 8b 18             	mov    (%rax),%rbx
  403b7a:	48 8b 45 e8          	mov    -0x18(%rbp),%rax
  403b7e:	48 8d 50 08          	lea    0x8(%rax),%rdx
  403b82:	48 8b 45 d8          	mov    -0x28(%rbp),%rax
  403b86:	48 89 c6             	mov    %rax,%rsi
  403b89:	48 89 d7             	mov    %rdx,%rdi
  403b8c:	e8 39 06 00 00       	callq  4041ca <_ZNSt3mapISsiSt4lessISsESaISt4pairIKSsiEEEixERS3_>
  403b91:	8b 00                	mov    (%rax),%eax
  403b93:	48 98                	cltq   
  403b95:	48 c1 e0 02          	shl    $0x2,%rax
  403b99:	48 01 d8             	add    %rbx,%rax
  403b9c:	8b 00                	mov    (%rax),%eax
  403b9e:	89 45 d4             	mov    %eax,-0x2c(%rbp)
  403ba1:	f3 0f 10 45 d4       	movss  -0x2c(%rbp),%xmm0
  403ba6:	48 83 c4 28          	add    $0x28,%rsp
  403baa:	5b                   	pop    %rbx
  403bab:	5d                   	pop    %rbp
  403bac:	c3                   	retq   
  403bad:	90                   	nop

0000000000403bae <_ZN9TestSuite9getColumnERKSs>:
  403bae:	55                   	push   %rbp
  403baf:	48 89 e5             	mov    %rsp,%rbp
  403bb2:	48 83 ec 10          	sub    $0x10,%rsp
  403bb6:	48 89 7d f8          	mov    %rdi,-0x8(%rbp)
  403bba:	48 89 75 f0          	mov    %rsi,-0x10(%rbp)
  403bbe:	48 8b 45 f8          	mov    -0x8(%rbp),%rax
  403bc2:	48 8d 50 08          	lea    0x8(%rax),%rdx
  403bc6:	48 8b 45 f0          	mov    -0x10(%rbp),%rax
  403bca:	48 89 c6             	mov    %rax,%rsi
  403bcd:	48 89 d7             	mov    %rdx,%rdi
  403bd0:	e8 f5 05 00 00       	callq  4041ca <_ZNSt3mapISsiSt4lessISsESaISt4pairIKSsiEEEixERS3_>
  403bd5:	8b 00                	mov    (%rax),%eax
  403bd7:	c9                   	leaveq 
  403bd8:	c3                   	retq   
  403bd9:	90                   	nop

0000000000403bda <_ZN9TestSuite9getColumnERKi>:
  403bda:	55                   	push   %rbp
  403bdb:	48 89 e5             	mov    %rsp,%rbp
  403bde:	48 83 ec 20          	sub    $0x20,%rsp
  403be2:	48 89 7d f8          	mov    %rdi,-0x8(%rbp)
  403be6:	48 89 75 f0          	mov    %rsi,-0x10(%rbp)
  403bea:	48 89 55 e8          	mov    %rdx,-0x18(%rbp)
  403bee:	48 8b 45 f0          	mov    -0x10(%rbp),%rax
  403bf2:	48 8d 50 38          	lea    0x38(%rax),%rdx
  403bf6:	48 8b 45 e8          	mov    -0x18(%rbp),%rax
  403bfa:	48 89 c6             	mov    %rax,%rsi
  403bfd:	48 89 d7             	mov    %rdx,%rdi
  403c00:	e8 21 07 00 00       	callq  404326 <_ZNSt3mapIiSsSt4lessIiESaISt4pairIKiSsEEEixERS3_>
  403c05:	48 89 c2             	mov    %rax,%rdx
  403c08:	48 8b 45 f8          	mov    -0x8(%rbp),%rax
  403c0c:	48 89 d6             	mov    %rdx,%rsi
  403c0f:	48 89 c7             	mov    %rax,%rdi
  403c12:	e8 39 e3 ff ff       	callq  401f50 <_ZNSsC1ERKSs@plt>
  403c17:	48 8b 45 f8          	mov    -0x8(%rbp),%rax
  403c1b:	c9                   	leaveq 
  403c1c:	c3                   	retq   
  403c1d:	90                   	nop

0000000000403c1e <_ZN9TestSuite11isEqualFastERS_RKSt6vectorIiSaIiEES5_>:
  403c1e:	55                   	push   %rbp
  403c1f:	48 89 e5             	mov    %rsp,%rbp
  403c22:	48 83 ec 40          	sub    $0x40,%rsp
  403c26:	48 89 7d d8          	mov    %rdi,-0x28(%rbp)
  403c2a:	48 89 75 d0          	mov    %rsi,-0x30(%rbp)
  403c2e:	48 89 55 c8          	mov    %rdx,-0x38(%rbp)
  403c32:	48 89 4d c0          	mov    %rcx,-0x40(%rbp)
  403c36:	48 8b 45 c8          	mov    -0x38(%rbp),%rax
  403c3a:	48 89 c7             	mov    %rax,%rdi
  403c3d:	e8 24 0a 00 00       	callq  404666 <_ZNKSt6vectorIiSaIiEE4sizeEv>
  403c42:	89 45 f0             	mov    %eax,-0x10(%rbp)
  403c45:	c7 45 fc 00 00 00 00 	movl   $0x0,-0x4(%rbp)
  403c4c:	e9 2c 01 00 00       	jmpq   403d7d <_ZN9TestSuite11isEqualFastERS_RKSt6vectorIiSaIiEES5_+0x15f>
  403c51:	8b 45 fc             	mov    -0x4(%rbp),%eax
  403c54:	48 63 d0             	movslq %eax,%rdx
  403c57:	48 8b 45 c8          	mov    -0x38(%rbp),%rax
  403c5b:	48 89 d6             	mov    %rdx,%rsi
  403c5e:	48 89 c7             	mov    %rax,%rdi
  403c61:	e8 60 0c 00 00       	callq  4048c6 <_ZNKSt6vectorIiSaIiEEixEm>
  403c66:	8b 00                	mov    (%rax),%eax
  403c68:	48 98                	cltq   
  403c6a:	48 8b 55 d8          	mov    -0x28(%rbp),%rdx
  403c6e:	48 83 c2 70          	add    $0x70,%rdx
  403c72:	48 89 c6             	mov    %rax,%rsi
  403c75:	48 89 d7             	mov    %rdx,%rdi
  403c78:	e8 c9 09 00 00       	callq  404646 <_ZNSt6vectorIiSaIiEEixEm>
  403c7d:	8b 00                	mov    (%rax),%eax
  403c7f:	89 45 ec             	mov    %eax,-0x14(%rbp)
  403c82:	8b 45 fc             	mov    -0x4(%rbp),%eax
  403c85:	48 63 d0             	movslq %eax,%rdx
  403c88:	48 8b 45 c8          	mov    -0x38(%rbp),%rax
  403c8c:	48 89 d6             	mov    %rdx,%rsi
  403c8f:	48 89 c7             	mov    %rax,%rdi
  403c92:	e8 2f 0c 00 00       	callq  4048c6 <_ZNKSt6vectorIiSaIiEEixEm>
  403c97:	8b 00                	mov    (%rax),%eax
  403c99:	48 98                	cltq   
  403c9b:	48 8b 55 d8          	mov    -0x28(%rbp),%rdx
  403c9f:	48 81 c2 88 00 00 00 	add    $0x88,%rdx
  403ca6:	48 89 c6             	mov    %rax,%rsi
  403ca9:	48 89 d7             	mov    %rdx,%rdi
  403cac:	e8 95 09 00 00       	callq  404646 <_ZNSt6vectorIiSaIiEEixEm>
  403cb1:	8b 00                	mov    (%rax),%eax
  403cb3:	89 45 e8             	mov    %eax,-0x18(%rbp)
  403cb6:	8b 45 ec             	mov    -0x14(%rbp),%eax
  403cb9:	89 45 f8             	mov    %eax,-0x8(%rbp)
  403cbc:	e9 ac 00 00 00       	jmpq   403d6d <_ZN9TestSuite11isEqualFastERS_RKSt6vectorIiSaIiEES5_+0x14f>
  403cc1:	48 8b 45 c0          	mov    -0x40(%rbp),%rax
  403cc5:	48 89 c7             	mov    %rax,%rdi
  403cc8:	e8 99 09 00 00       	callq  404666 <_ZNKSt6vectorIiSaIiEE4sizeEv>
  403ccd:	89 45 e4             	mov    %eax,-0x1c(%rbp)
  403cd0:	c7 45 f4 00 00 00 00 	movl   $0x0,-0xc(%rbp)
  403cd7:	e9 81 00 00 00       	jmpq   403d5d <_ZN9TestSuite11isEqualFastERS_RKSt6vectorIiSaIiEES5_+0x13f>
  403cdc:	8b 45 f4             	mov    -0xc(%rbp),%eax
  403cdf:	48 63 d0             	movslq %eax,%rdx
  403ce2:	48 8b 45 c0          	mov    -0x40(%rbp),%rax
  403ce6:	48 89 d6             	mov    %rdx,%rsi
  403ce9:	48 89 c7             	mov    %rax,%rdi
  403cec:	e8 d5 0b 00 00       	callq  4048c6 <_ZNKSt6vectorIiSaIiEEixEm>
  403cf1:	8b 00                	mov    (%rax),%eax
  403cf3:	89 45 e0             	mov    %eax,-0x20(%rbp)
  403cf6:	48 8b 45 d8          	mov    -0x28(%rbp),%rax
  403cfa:	48 8b 40 68          	mov    0x68(%rax),%rax
  403cfe:	8b 55 f8             	mov    -0x8(%rbp),%edx
  403d01:	48 63 d2             	movslq %edx,%rdx
  403d04:	48 c1 e2 03          	shl    $0x3,%rdx
  403d08:	48 01 d0             	add    %rdx,%rax
  403d0b:	48 8b 00             	mov    (%rax),%rax
  403d0e:	8b 55 e0             	mov    -0x20(%rbp),%edx
  403d11:	48 63 d2             	movslq %edx,%rdx
  403d14:	48 c1 e2 02          	shl    $0x2,%rdx
  403d18:	48 01 d0             	add    %rdx,%rax
  403d1b:	f3 0f 10 00          	movss  (%rax),%xmm0
  403d1f:	48 8b 45 d0          	mov    -0x30(%rbp),%rax
  403d23:	48 8b 40 68          	mov    0x68(%rax),%rax
  403d27:	8b 55 f8             	mov    -0x8(%rbp),%edx
  403d2a:	48 63 d2             	movslq %edx,%rdx
  403d2d:	48 c1 e2 03          	shl    $0x3,%rdx
  403d31:	48 01 d0             	add    %rdx,%rax
  403d34:	48 8b 00             	mov    (%rax),%rax
  403d37:	8b 55 e0             	mov    -0x20(%rbp),%edx
  403d3a:	48 63 d2             	movslq %edx,%rdx
  403d3d:	48 c1 e2 02          	shl    $0x2,%rdx
  403d41:	48 01 d0             	add    %rdx,%rax
  403d44:	f3 0f 10 08          	movss  (%rax),%xmm1
  403d48:	0f 2e c1             	ucomiss %xmm1,%xmm0
  403d4b:	7a 05                	jp     403d52 <_ZN9TestSuite11isEqualFastERS_RKSt6vectorIiSaIiEES5_+0x134>
  403d4d:	0f 2e c1             	ucomiss %xmm1,%xmm0
  403d50:	74 07                	je     403d59 <_ZN9TestSuite11isEqualFastERS_RKSt6vectorIiSaIiEES5_+0x13b>
  403d52:	b8 00 00 00 00       	mov    $0x0,%eax
  403d57:	eb 35                	jmp    403d8e <_ZN9TestSuite11isEqualFastERS_RKSt6vectorIiSaIiEES5_+0x170>
  403d59:	83 45 f4 01          	addl   $0x1,-0xc(%rbp)
  403d5d:	8b 45 f4             	mov    -0xc(%rbp),%eax
  403d60:	3b 45 e4             	cmp    -0x1c(%rbp),%eax
  403d63:	0f 8c 73 ff ff ff    	jl     403cdc <_ZN9TestSuite11isEqualFastERS_RKSt6vectorIiSaIiEES5_+0xbe>
  403d69:	83 45 f8 01          	addl   $0x1,-0x8(%rbp)
  403d6d:	8b 45 f8             	mov    -0x8(%rbp),%eax
  403d70:	3b 45 e8             	cmp    -0x18(%rbp),%eax
  403d73:	0f 8e 48 ff ff ff    	jle    403cc1 <_ZN9TestSuite11isEqualFastERS_RKSt6vectorIiSaIiEES5_+0xa3>
  403d79:	83 45 fc 01          	addl   $0x1,-0x4(%rbp)
  403d7d:	8b 45 fc             	mov    -0x4(%rbp),%eax
  403d80:	3b 45 f0             	cmp    -0x10(%rbp),%eax
  403d83:	0f 8c c8 fe ff ff    	jl     403c51 <_ZN9TestSuite11isEqualFastERS_RKSt6vectorIiSaIiEES5_+0x33>
  403d89:	b8 01 00 00 00       	mov    $0x1,%eax
  403d8e:	c9                   	leaveq 
  403d8f:	c3                   	retq   

0000000000403d90 <_ZN9TestSuite7isEqualERS_RKSt6vectorIiSaIiEERKS1_ISsSaISsEE>:
  403d90:	55                   	push   %rbp
  403d91:	48 89 e5             	mov    %rsp,%rbp
  403d94:	53                   	push   %rbx
  403d95:	48 83 ec 58          	sub    $0x58,%rsp
  403d99:	48 89 7d c8          	mov    %rdi,-0x38(%rbp)
  403d9d:	48 89 75 c0          	mov    %rsi,-0x40(%rbp)
  403da1:	48 89 55 b8          	mov    %rdx,-0x48(%rbp)
  403da5:	48 89 4d b0          	mov    %rcx,-0x50(%rbp)
  403da9:	48 8b 45 b8          	mov    -0x48(%rbp),%rax
  403dad:	48 89 c7             	mov    %rax,%rdi
  403db0:	e8 b1 08 00 00       	callq  404666 <_ZNKSt6vectorIiSaIiEE4sizeEv>
  403db5:	89 45 e0             	mov    %eax,-0x20(%rbp)
  403db8:	c7 45 ec 00 00 00 00 	movl   $0x0,-0x14(%rbp)
  403dbf:	e9 79 01 00 00       	jmpq   403f3d <_ZN9TestSuite7isEqualERS_RKSt6vectorIiSaIiEERKS1_ISsSaISsEE+0x1ad>
  403dc4:	8b 45 ec             	mov    -0x14(%rbp),%eax
  403dc7:	48 63 d0             	movslq %eax,%rdx
  403dca:	48 8b 45 b8          	mov    -0x48(%rbp),%rax
  403dce:	48 89 d6             	mov    %rdx,%rsi
  403dd1:	48 89 c7             	mov    %rax,%rdi
  403dd4:	e8 ed 0a 00 00       	callq  4048c6 <_ZNKSt6vectorIiSaIiEEixEm>
  403dd9:	8b 00                	mov    (%rax),%eax
  403ddb:	48 98                	cltq   
  403ddd:	48 8b 55 c8          	mov    -0x38(%rbp),%rdx
  403de1:	48 83 c2 70          	add    $0x70,%rdx
  403de5:	48 89 c6             	mov    %rax,%rsi
  403de8:	48 89 d7             	mov    %rdx,%rdi
  403deb:	e8 56 08 00 00       	callq  404646 <_ZNSt6vectorIiSaIiEEixEm>
  403df0:	8b 00                	mov    (%rax),%eax
  403df2:	89 45 dc             	mov    %eax,-0x24(%rbp)
  403df5:	8b 45 ec             	mov    -0x14(%rbp),%eax
  403df8:	48 63 d0             	movslq %eax,%rdx
  403dfb:	48 8b 45 b8          	mov    -0x48(%rbp),%rax
  403dff:	48 89 d6             	mov    %rdx,%rsi
  403e02:	48 89 c7             	mov    %rax,%rdi
  403e05:	e8 bc 0a 00 00       	callq  4048c6 <_ZNKSt6vectorIiSaIiEEixEm>
  403e0a:	8b 00                	mov    (%rax),%eax
  403e0c:	48 98                	cltq   
  403e0e:	48 8b 55 c8          	mov    -0x38(%rbp),%rdx
  403e12:	48 81 c2 88 00 00 00 	add    $0x88,%rdx
  403e19:	48 89 c6             	mov    %rax,%rsi
  403e1c:	48 89 d7             	mov    %rdx,%rdi
  403e1f:	e8 22 08 00 00       	callq  404646 <_ZNSt6vectorIiSaIiEEixEm>
  403e24:	8b 00                	mov    (%rax),%eax
  403e26:	89 45 d8             	mov    %eax,-0x28(%rbp)
  403e29:	8b 45 dc             	mov    -0x24(%rbp),%eax
  403e2c:	89 45 e8             	mov    %eax,-0x18(%rbp)
  403e2f:	e9 f9 00 00 00       	jmpq   403f2d <_ZN9TestSuite7isEqualERS_RKSt6vectorIiSaIiEERKS1_ISsSaISsEE+0x19d>
  403e34:	48 8b 45 b0          	mov    -0x50(%rbp),%rax
  403e38:	48 89 c7             	mov    %rax,%rdi
  403e3b:	e8 a6 0a 00 00       	callq  4048e6 <_ZNKSt6vectorISsSaISsEE4sizeEv>
  403e40:	89 45 d4             	mov    %eax,-0x2c(%rbp)
  403e43:	c7 45 e4 00 00 00 00 	movl   $0x0,-0x1c(%rbp)
  403e4a:	e9 ce 00 00 00       	jmpq   403f1d <_ZN9TestSuite7isEqualERS_RKSt6vectorIiSaIiEERKS1_ISsSaISsEE+0x18d>
  403e4f:	48 8b 45 c8          	mov    -0x38(%rbp),%rax
  403e53:	48 8b 40 68          	mov    0x68(%rax),%rax
  403e57:	8b 55 e8             	mov    -0x18(%rbp),%edx
  403e5a:	48 63 d2             	movslq %edx,%rdx
  403e5d:	48 c1 e2 03          	shl    $0x3,%rdx
  403e61:	48 01 d0             	add    %rdx,%rax
  403e64:	48 8b 18             	mov    (%rax),%rbx
  403e67:	8b 45 e4             	mov    -0x1c(%rbp),%eax
  403e6a:	48 63 d0             	movslq %eax,%rdx
  403e6d:	48 8b 45 b0          	mov    -0x50(%rbp),%rax
  403e71:	48 89 d6             	mov    %rdx,%rsi
  403e74:	48 89 c7             	mov    %rax,%rdi
  403e77:	e8 90 0a 00 00       	callq  40490c <_ZNKSt6vectorISsSaISsEEixEm>
  403e7c:	48 89 c2             	mov    %rax,%rdx
  403e7f:	48 8b 45 c8          	mov    -0x38(%rbp),%rax
  403e83:	48 83 c0 08          	add    $0x8,%rax
  403e87:	48 89 d6             	mov    %rdx,%rsi
  403e8a:	48 89 c7             	mov    %rax,%rdi
  403e8d:	e8 38 03 00 00       	callq  4041ca <_ZNSt3mapISsiSt4lessISsESaISt4pairIKSsiEEEixERS3_>
  403e92:	8b 00                	mov    (%rax),%eax
  403e94:	48 98                	cltq   
  403e96:	48 c1 e0 02          	shl    $0x2,%rax
  403e9a:	48 01 d8             	add    %rbx,%rax
  403e9d:	f3 0f 10 08          	movss  (%rax),%xmm1
  403ea1:	f3 0f 11 4d ac       	movss  %xmm1,-0x54(%rbp)
  403ea6:	48 8b 45 c0          	mov    -0x40(%rbp),%rax
  403eaa:	48 8b 40 68          	mov    0x68(%rax),%rax
  403eae:	8b 55 e8             	mov    -0x18(%rbp),%edx
  403eb1:	48 63 d2             	movslq %edx,%rdx
  403eb4:	48 c1 e2 03          	shl    $0x3,%rdx
  403eb8:	48 01 d0             	add    %rdx,%rax
  403ebb:	48 8b 18             	mov    (%rax),%rbx
  403ebe:	8b 45 e4             	mov    -0x1c(%rbp),%eax
  403ec1:	48 63 d0             	movslq %eax,%rdx
  403ec4:	48 8b 45 b0          	mov    -0x50(%rbp),%rax
  403ec8:	48 89 d6             	mov    %rdx,%rsi
  403ecb:	48 89 c7             	mov    %rax,%rdi
  403ece:	e8 39 0a 00 00       	callq  40490c <_ZNKSt6vectorISsSaISsEEixEm>
  403ed3:	48 89 c2             	mov    %rax,%rdx
  403ed6:	48 8b 45 c0          	mov    -0x40(%rbp),%rax
  403eda:	48 83 c0 08          	add    $0x8,%rax
  403ede:	48 89 d6             	mov    %rdx,%rsi
  403ee1:	48 89 c7             	mov    %rax,%rdi
  403ee4:	e8 e1 02 00 00       	callq  4041ca <_ZNSt3mapISsiSt4lessISsESaISt4pairIKSsiEEEixERS3_>
  403ee9:	8b 00                	mov    (%rax),%eax
  403eeb:	48 98                	cltq   
  403eed:	48 c1 e0 02          	shl    $0x2,%rax
  403ef1:	48 01 d8             	add    %rbx,%rax
  403ef4:	f3 0f 10 00          	movss  (%rax),%xmm0
  403ef8:	f3 0f 10 4d ac       	movss  -0x54(%rbp),%xmm1
  403efd:	0f 2e c8             	ucomiss %xmm0,%xmm1
  403f00:	0f 9a c0             	setp   %al
  403f03:	ba 01 00 00 00       	mov    $0x1,%edx
  403f08:	0f 2e c8             	ucomiss %xmm0,%xmm1
  403f0b:	0f 45 c2             	cmovne %edx,%eax
  403f0e:	84 c0                	test   %al,%al
  403f10:	74 07                	je     403f19 <_ZN9TestSuite7isEqualERS_RKSt6vectorIiSaIiEERKS1_ISsSaISsEE+0x189>
  403f12:	b8 00 00 00 00       	mov    $0x0,%eax
  403f17:	eb 35                	jmp    403f4e <_ZN9TestSuite7isEqualERS_RKSt6vectorIiSaIiEERKS1_ISsSaISsEE+0x1be>
  403f19:	83 45 e4 01          	addl   $0x1,-0x1c(%rbp)
  403f1d:	8b 45 e4             	mov    -0x1c(%rbp),%eax
  403f20:	3b 45 d4             	cmp    -0x2c(%rbp),%eax
  403f23:	0f 8c 26 ff ff ff    	jl     403e4f <_ZN9TestSuite7isEqualERS_RKSt6vectorIiSaIiEERKS1_ISsSaISsEE+0xbf>
  403f29:	83 45 e8 01          	addl   $0x1,-0x18(%rbp)
  403f2d:	8b 45 e8             	mov    -0x18(%rbp),%eax
  403f30:	3b 45 d8             	cmp    -0x28(%rbp),%eax
  403f33:	0f 8e fb fe ff ff    	jle    403e34 <_ZN9TestSuite7isEqualERS_RKSt6vectorIiSaIiEERKS1_ISsSaISsEE+0xa4>
  403f39:	83 45 ec 01          	addl   $0x1,-0x14(%rbp)
  403f3d:	8b 45 ec             	mov    -0x14(%rbp),%eax
  403f40:	3b 45 e0             	cmp    -0x20(%rbp),%eax
  403f43:	0f 8c 7b fe ff ff    	jl     403dc4 <_ZN9TestSuite7isEqualERS_RKSt6vectorIiSaIiEERKS1_ISsSaISsEE+0x34>
  403f49:	b8 01 00 00 00       	mov    $0x1,%eax
  403f4e:	48 83 c4 58          	add    $0x58,%rsp
  403f52:	5b                   	pop    %rbx
  403f53:	5d                   	pop    %rbp
  403f54:	c3                   	retq   

0000000000403f55 <_Z41__static_initialization_and_destruction_0ii>:
  403f55:	55                   	push   %rbp
  403f56:	48 89 e5             	mov    %rsp,%rbp
  403f59:	48 83 ec 10          	sub    $0x10,%rsp
  403f5d:	89 7d fc             	mov    %edi,-0x4(%rbp)
  403f60:	89 75 f8             	mov    %esi,-0x8(%rbp)
  403f63:	83 7d fc 01          	cmpl   $0x1,-0x4(%rbp)
  403f67:	75 27                	jne    403f90 <_Z41__static_initialization_and_destruction_0ii+0x3b>
  403f69:	81 7d f8 ff ff 00 00 	cmpl   $0xffff,-0x8(%rbp)
  403f70:	75 1e                	jne    403f90 <_Z41__static_initialization_and_destruction_0ii+0x3b>
  403f72:	bf 51 a8 61 00       	mov    $0x61a851,%edi
  403f77:	e8 94 df ff ff       	callq  401f10 <_ZNSt8ios_base4InitC1Ev@plt>
  403f7c:	ba 78 a5 61 00       	mov    $0x61a578,%edx
  403f81:	be 51 a8 61 00       	mov    $0x61a851,%esi
  403f86:	bf 80 1f 40 00       	mov    $0x401f80,%edi
  403f8b:	e8 d0 df ff ff       	callq  401f60 <__cxa_atexit@plt>
  403f90:	c9                   	leaveq 
  403f91:	c3                   	retq   

0000000000403f92 <_GLOBAL__sub_I__Z8isNumberRKSs>:
  403f92:	55                   	push   %rbp
  403f93:	48 89 e5             	mov    %rsp,%rbp
  403f96:	be ff ff 00 00       	mov    $0xffff,%esi
  403f9b:	bf 01 00 00 00       	mov    $0x1,%edi
  403fa0:	e8 b0 ff ff ff       	callq  403f55 <_Z41__static_initialization_and_destruction_0ii>
  403fa5:	5d                   	pop    %rbp
  403fa6:	c3                   	retq   

0000000000403fa7 <_ZnwmPv>:
  403fa7:	55                   	push   %rbp
  403fa8:	48 89 e5             	mov    %rsp,%rbp
  403fab:	48 89 7d f8          	mov    %rdi,-0x8(%rbp)
  403faf:	48 89 75 f0          	mov    %rsi,-0x10(%rbp)
  403fb3:	48 8b 45 f0          	mov    -0x10(%rbp),%rax
  403fb7:	5d                   	pop    %rbp
  403fb8:	c3                   	retq   

0000000000403fb9 <_ZdlPvS_>:
  403fb9:	55                   	push   %rbp
  403fba:	48 89 e5             	mov    %rsp,%rbp
  403fbd:	48 89 7d f8          	mov    %rdi,-0x8(%rbp)
  403fc1:	48 89 75 f0          	mov    %rsi,-0x10(%rbp)
  403fc5:	5d                   	pop    %rbp
  403fc6:	c3                   	retq   

0000000000403fc7 <_ZStorSt13_Ios_OpenmodeS_>:
  403fc7:	55                   	push   %rbp
  403fc8:	48 89 e5             	mov    %rsp,%rbp
  403fcb:	89 7d fc             	mov    %edi,-0x4(%rbp)
  403fce:	89 75 f8             	mov    %esi,-0x8(%rbp)
  403fd1:	8b 55 fc             	mov    -0x4(%rbp),%edx
  403fd4:	8b 45 f8             	mov    -0x8(%rbp),%eax
  403fd7:	09 d0                	or     %edx,%eax
  403fd9:	5d                   	pop    %rbp
  403fda:	c3                   	retq   

0000000000403fdb <_ZNSt18_Rb_tree_node_base10_S_minimumEPS_>:
  403fdb:	55                   	push   %rbp
  403fdc:	48 89 e5             	mov    %rsp,%rbp
  403fdf:	48 89 7d f8          	mov    %rdi,-0x8(%rbp)
  403fe3:	eb 0c                	jmp    403ff1 <_ZNSt18_Rb_tree_node_base10_S_minimumEPS_+0x16>
  403fe5:	48 8b 45 f8          	mov    -0x8(%rbp),%rax
  403fe9:	48 8b 40 10          	mov    0x10(%rax),%rax
  403fed:	48 89 45 f8          	mov    %rax,-0x8(%rbp)
  403ff1:	48 8b 45 f8          	mov    -0x8(%rbp),%rax
  403ff5:	48 8b 40 10          	mov    0x10(%rax),%rax
  403ff9:	48 85 c0             	test   %rax,%rax
  403ffc:	75 e7                	jne    403fe5 <_ZNSt18_Rb_tree_node_base10_S_minimumEPS_+0xa>
  403ffe:	48 8b 45 f8          	mov    -0x8(%rbp),%rax
  404002:	5d                   	pop    %rbp
  404003:	c3                   	retq   

0000000000404004 <_ZNSt18_Rb_tree_node_base10_S_maximumEPS_>:
  404004:	55                   	push   %rbp
  404005:	48 89 e5             	mov    %rsp,%rbp
  404008:	48 89 7d f8          	mov    %rdi,-0x8(%rbp)
  40400c:	eb 0c                	jmp    40401a <_ZNSt18_Rb_tree_node_base10_S_maximumEPS_+0x16>
  40400e:	48 8b 45 f8          	mov    -0x8(%rbp),%rax
  404012:	48 8b 40 18          	mov    0x18(%rax),%rax
  404016:	48 89 45 f8          	mov    %rax,-0x8(%rbp)
  40401a:	48 8b 45 f8          	mov    -0x8(%rbp),%rax
  40401e:	48 8b 40 18          	mov    0x18(%rax),%rax
  404022:	48 85 c0             	test   %rax,%rax
  404025:	75 e7                	jne    40400e <_ZNSt18_Rb_tree_node_base10_S_maximumEPS_+0xa>
  404027:	48 8b 45 f8          	mov    -0x8(%rbp),%rax
  40402b:	5d                   	pop    %rbp
  40402c:	c3                   	retq   
  40402d:	90                   	nop

000000000040402e <_ZNSt3mapISsiSt4lessISsESaISt4pairIKSsiEEED1Ev>:
  40402e:	55                   	push   %rbp
  40402f:	48 89 e5             	mov    %rsp,%rbp
  404032:	48 83 ec 10          	sub    $0x10,%rsp
  404036:	48 89 7d f8          	mov    %rdi,-0x8(%rbp)
  40403a:	48 8b 45 f8          	mov    -0x8(%rbp),%rax
  40403e:	48 89 c7             	mov    %rax,%rdi
  404041:	e8 36 00 00 00       	callq  40407c <_ZNSt8_Rb_treeISsSt4pairIKSsiESt10_Select1stIS2_ESt4lessISsESaIS2_EED1Ev>
  404046:	c9                   	leaveq 
  404047:	c3                   	retq   

0000000000404048 <_ZNSt3mapIiSsSt4lessIiESaISt4pairIKiSsEEED1Ev>:
  404048:	55                   	push   %rbp
  404049:	48 89 e5             	mov    %rsp,%rbp
  40404c:	48 83 ec 10          	sub    $0x10,%rsp
  404050:	48 89 7d f8          	mov    %rdi,-0x8(%rbp)
  404054:	48 8b 45 f8          	mov    -0x8(%rbp),%rax
  404058:	48 89 c7             	mov    %rax,%rdi
  40405b:	e8 90 00 00 00       	callq  4040f0 <_ZNSt8_Rb_treeIiSt4pairIKiSsESt10_Select1stIS2_ESt4lessIiESaIS2_EED1Ev>
  404060:	c9                   	leaveq 
  404061:	c3                   	retq   

0000000000404062 <_ZNSt8_Rb_treeISsSt4pairIKSsiESt10_Select1stIS2_ESt4lessISsESaIS2_EE13_Rb_tree_implIS6_Lb0EED1Ev>:
  404062:	55                   	push   %rbp
  404063:	48 89 e5             	mov    %rsp,%rbp
  404066:	48 83 ec 10          	sub    $0x10,%rsp
  40406a:	48 89 7d f8          	mov    %rdi,-0x8(%rbp)
  40406e:	48 8b 45 f8          	mov    -0x8(%rbp),%rax
  404072:	48 89 c7             	mov    %rax,%rdi
  404075:	e8 b2 08 00 00       	callq  40492c <_ZNSaISt13_Rb_tree_nodeISt4pairIKSsiEEED1Ev>
  40407a:	c9                   	leaveq 
  40407b:	c3                   	retq   

000000000040407c <_ZNSt8_Rb_treeISsSt4pairIKSsiESt10_Select1stIS2_ESt4lessISsESaIS2_EED1Ev>:
  40407c:	55                   	push   %rbp
  40407d:	48 89 e5             	mov    %rsp,%rbp
  404080:	53                   	push   %rbx
  404081:	48 83 ec 18          	sub    $0x18,%rsp
  404085:	48 89 7d e8          	mov    %rdi,-0x18(%rbp)
  404089:	48 8b 45 e8          	mov    -0x18(%rbp),%rax
  40408d:	48 89 c7             	mov    %rax,%rdi
  404090:	e8 15 09 00 00       	callq  4049aa <_ZNSt8_Rb_treeISsSt4pairIKSsiESt10_Select1stIS2_ESt4lessISsESaIS2_EE8_M_beginEv>
  404095:	48 89 c2             	mov    %rax,%rdx
  404098:	48 8b 45 e8          	mov    -0x18(%rbp),%rax
  40409c:	48 89 d6             	mov    %rdx,%rsi
  40409f:	48 89 c7             	mov    %rax,%rdi
  4040a2:	e8 9f 08 00 00       	callq  404946 <_ZNSt8_Rb_treeISsSt4pairIKSsiESt10_Select1stIS2_ESt4lessISsESaIS2_EE8_M_eraseEPSt13_Rb_tree_nodeIS2_E>
  4040a7:	48 8b 45 e8          	mov    -0x18(%rbp),%rax
  4040ab:	48 89 c7             	mov    %rax,%rdi
  4040ae:	e8 af ff ff ff       	callq  404062 <_ZNSt8_Rb_treeISsSt4pairIKSsiESt10_Select1stIS2_ESt4lessISsESaIS2_EE13_Rb_tree_implIS6_Lb0EED1Ev>
  4040b3:	eb 1a                	jmp    4040cf <_ZNSt8_Rb_treeISsSt4pairIKSsiESt10_Select1stIS2_ESt4lessISsESaIS2_EED1Ev+0x53>
  4040b5:	48 89 c3             	mov    %rax,%rbx
  4040b8:	48 8b 45 e8          	mov    -0x18(%rbp),%rax
  4040bc:	48 89 c7             	mov    %rax,%rdi
  4040bf:	e8 9e ff ff ff       	callq  404062 <_ZNSt8_Rb_treeISsSt4pairIKSsiESt10_Select1stIS2_ESt4lessISsESaIS2_EE13_Rb_tree_implIS6_Lb0EED1Ev>
  4040c4:	48 89 d8             	mov    %rbx,%rax
  4040c7:	48 89 c7             	mov    %rax,%rdi
  4040ca:	e8 31 e1 ff ff       	callq  402200 <_Unwind_Resume@plt>
  4040cf:	48 83 c4 18          	add    $0x18,%rsp
  4040d3:	5b                   	pop    %rbx
  4040d4:	5d                   	pop    %rbp
  4040d5:	c3                   	retq   

00000000004040d6 <_ZNSt8_Rb_treeIiSt4pairIKiSsESt10_Select1stIS2_ESt4lessIiESaIS2_EE13_Rb_tree_implIS6_Lb0EED1Ev>:
  4040d6:	55                   	push   %rbp
  4040d7:	48 89 e5             	mov    %rsp,%rbp
  4040da:	48 83 ec 10          	sub    $0x10,%rsp
  4040de:	48 89 7d f8          	mov    %rdi,-0x8(%rbp)
  4040e2:	48 8b 45 f8          	mov    -0x8(%rbp),%rax
  4040e6:	48 89 c7             	mov    %rax,%rdi
  4040e9:	e8 ce 08 00 00       	callq  4049bc <_ZNSaISt13_Rb_tree_nodeISt4pairIKiSsEEED1Ev>
  4040ee:	c9                   	leaveq 
  4040ef:	c3                   	retq   

00000000004040f0 <_ZNSt8_Rb_treeIiSt4pairIKiSsESt10_Select1stIS2_ESt4lessIiESaIS2_EED1Ev>:
  4040f0:	55                   	push   %rbp
  4040f1:	48 89 e5             	mov    %rsp,%rbp
  4040f4:	53                   	push   %rbx
  4040f5:	48 83 ec 18          	sub    $0x18,%rsp
  4040f9:	48 89 7d e8          	mov    %rdi,-0x18(%rbp)
  4040fd:	48 8b 45 e8          	mov    -0x18(%rbp),%rax
  404101:	48 89 c7             	mov    %rax,%rdi
  404104:	e8 31 09 00 00       	callq  404a3a <_ZNSt8_Rb_treeIiSt4pairIKiSsESt10_Select1stIS2_ESt4lessIiESaIS2_EE8_M_beginEv>
  404109:	48 89 c2             	mov    %rax,%rdx
  40410c:	48 8b 45 e8          	mov    -0x18(%rbp),%rax
  404110:	48 89 d6             	mov    %rdx,%rsi
  404113:	48 89 c7             	mov    %rax,%rdi
  404116:	e8 bb 08 00 00       	callq  4049d6 <_ZNSt8_Rb_treeIiSt4pairIKiSsESt10_Select1stIS2_ESt4lessIiESaIS2_EE8_M_eraseEPSt13_Rb_tree_nodeIS2_E>
  40411b:	48 8b 45 e8          	mov    -0x18(%rbp),%rax
  40411f:	48 89 c7             	mov    %rax,%rdi
  404122:	e8 af ff ff ff       	callq  4040d6 <_ZNSt8_Rb_treeIiSt4pairIKiSsESt10_Select1stIS2_ESt4lessIiESaIS2_EE13_Rb_tree_implIS6_Lb0EED1Ev>
  404127:	eb 1a                	jmp    404143 <_ZNSt8_Rb_treeIiSt4pairIKiSsESt10_Select1stIS2_ESt4lessIiESaIS2_EED1Ev+0x53>
  404129:	48 89 c3             	mov    %rax,%rbx
  40412c:	48 8b 45 e8          	mov    -0x18(%rbp),%rax
  404130:	48 89 c7             	mov    %rax,%rdi
  404133:	e8 9e ff ff ff       	callq  4040d6 <_ZNSt8_Rb_treeIiSt4pairIKiSsESt10_Select1stIS2_ESt4lessIiESaIS2_EE13_Rb_tree_implIS6_Lb0EED1Ev>
  404138:	48 89 d8             	mov    %rbx,%rax
  40413b:	48 89 c7             	mov    %rax,%rdi
  40413e:	e8 bd e0 ff ff       	callq  402200 <_Unwind_Resume@plt>
  404143:	48 83 c4 18          	add    $0x18,%rsp
  404147:	5b                   	pop    %rbx
  404148:	5d                   	pop    %rbp
  404149:	c3                   	retq   

000000000040414a <_ZNSt6vectorIiSaIiEED1Ev>:
  40414a:	55                   	push   %rbp
  40414b:	48 89 e5             	mov    %rsp,%rbp
  40414e:	53                   	push   %rbx
  40414f:	48 83 ec 18          	sub    $0x18,%rsp
  404153:	48 89 7d e8          	mov    %rdi,-0x18(%rbp)
  404157:	48 8b 45 e8          	mov    -0x18(%rbp),%rax
  40415b:	48 89 c7             	mov    %rax,%rdi
  40415e:	e8 75 09 00 00       	callq  404ad8 <_ZNSt12_Vector_baseIiSaIiEE19_M_get_Tp_allocatorEv>
  404163:	48 89 c2             	mov    %rax,%rdx
  404166:	48 8b 45 e8          	mov    -0x18(%rbp),%rax
  40416a:	48 8b 48 08          	mov    0x8(%rax),%rcx
  40416e:	48 8b 45 e8          	mov    -0x18(%rbp),%rax
  404172:	48 8b 00             	mov    (%rax),%rax
  404175:	48 89 ce             	mov    %rcx,%rsi
  404178:	48 89 c7             	mov    %rax,%rdi
  40417b:	e8 66 09 00 00       	callq  404ae6 <_ZSt8_DestroyIPiiEvT_S1_RSaIT0_E>
  404180:	48 8b 45 e8          	mov    -0x18(%rbp),%rax
  404184:	48 89 c7             	mov    %rax,%rdi
  404187:	e8 da 08 00 00       	callq  404a66 <_ZNSt12_Vector_baseIiSaIiEED1Ev>
  40418c:	eb 1a                	jmp    4041a8 <_ZNSt6vectorIiSaIiEED1Ev+0x5e>
  40418e:	48 89 c3             	mov    %rax,%rbx
  404191:	48 8b 45 e8          	mov    -0x18(%rbp),%rax
  404195:	48 89 c7             	mov    %rax,%rdi
  404198:	e8 c9 08 00 00       	callq  404a66 <_ZNSt12_Vector_baseIiSaIiEED1Ev>
  40419d:	48 89 d8             	mov    %rbx,%rax
  4041a0:	48 89 c7             	mov    %rax,%rdi
  4041a3:	e8 58 e0 ff ff       	callq  402200 <_Unwind_Resume@plt>
  4041a8:	48 83 c4 18          	add    $0x18,%rsp
  4041ac:	5b                   	pop    %rbx
  4041ad:	5d                   	pop    %rbp
  4041ae:	c3                   	retq   
  4041af:	90                   	nop

00000000004041b0 <_ZNSt4pairIKSsiED1Ev>:
  4041b0:	55                   	push   %rbp
  4041b1:	48 89 e5             	mov    %rsp,%rbp
  4041b4:	48 83 ec 10          	sub    $0x10,%rsp
  4041b8:	48 89 7d f8          	mov    %rdi,-0x8(%rbp)
  4041bc:	48 8b 45 f8          	mov    -0x8(%rbp),%rax
  4041c0:	48 89 c7             	mov    %rax,%rdi
  4041c3:	e8 e8 dd ff ff       	callq  401fb0 <_ZNSsD1Ev@plt>
  4041c8:	c9                   	leaveq 
  4041c9:	c3                   	retq   

00000000004041ca <_ZNSt3mapISsiSt4lessISsESaISt4pairIKSsiEEEixERS3_>:
  4041ca:	55                   	push   %rbp
  4041cb:	48 89 e5             	mov    %rsp,%rbp
  4041ce:	41 55                	push   %r13
  4041d0:	41 54                	push   %r12
  4041d2:	53                   	push   %rbx
  4041d3:	48 83 ec 58          	sub    $0x58,%rsp
  4041d7:	48 89 7d 98          	mov    %rdi,-0x68(%rbp)
  4041db:	48 89 75 90          	mov    %rsi,-0x70(%rbp)
  4041df:	48 8b 55 90          	mov    -0x70(%rbp),%rdx
  4041e3:	48 8b 45 98          	mov    -0x68(%rbp),%rax
  4041e7:	48 89 d6             	mov    %rdx,%rsi
  4041ea:	48 89 c7             	mov    %rax,%rdi
  4041ed:	e8 1e 09 00 00       	callq  404b10 <_ZNSt3mapISsiSt4lessISsESaISt4pairIKSsiEEE11lower_boundERS3_>
  4041f2:	48 89 45 a0          	mov    %rax,-0x60(%rbp)
  4041f6:	bb 00 00 00 00       	mov    $0x0,%ebx
  4041fb:	41 bc 00 00 00 00    	mov    $0x0,%r12d
  404201:	48 8b 45 98          	mov    -0x68(%rbp),%rax
  404205:	48 89 c7             	mov    %rax,%rdi
  404208:	e8 a9 03 00 00       	callq  4045b6 <_ZNSt3mapISsiSt4lessISsESaISt4pairIKSsiEEE3endEv>
  40420d:	48 89 45 b0          	mov    %rax,-0x50(%rbp)
  404211:	bb 01 00 00 00       	mov    $0x1,%ebx
  404216:	48 8d 55 b0          	lea    -0x50(%rbp),%rdx
  40421a:	48 8d 45 a0          	lea    -0x60(%rbp),%rax
  40421e:	48 89 d6             	mov    %rdx,%rsi
  404221:	48 89 c7             	mov    %rax,%rdi
  404224:	e8 77 09 00 00       	callq  404ba0 <_ZNKSt17_Rb_tree_iteratorISt4pairIKSsiEEeqERKS3_>
  404229:	84 c0                	test   %al,%al
  40422b:	75 3b                	jne    404268 <_ZNSt3mapISsiSt4lessISsESaISt4pairIKSsiEEEixERS3_+0x9e>
  40422d:	48 8d 45 a0          	lea    -0x60(%rbp),%rax
  404231:	48 89 c7             	mov    %rax,%rdi
  404234:	e8 1f 09 00 00       	callq  404b58 <_ZNKSt17_Rb_tree_iteratorISt4pairIKSsiEEdeEv>
  404239:	49 89 c5             	mov    %rax,%r13
  40423c:	48 8b 45 98          	mov    -0x68(%rbp),%rax
  404240:	48 89 c7             	mov    %rax,%rdi
  404243:	e8 ee 08 00 00       	callq  404b36 <_ZNKSt3mapISsiSt4lessISsESaISt4pairIKSsiEEE8key_compEv>
  404248:	41 bc 01 00 00 00    	mov    $0x1,%r12d
  40424e:	48 8b 4d 90          	mov    -0x70(%rbp),%rcx
  404252:	48 8d 45 bf          	lea    -0x41(%rbp),%rax
  404256:	4c 89 ea             	mov    %r13,%rdx
  404259:	48 89 ce             	mov    %rcx,%rsi
  40425c:	48 89 c7             	mov    %rax,%rdi
  40425f:	e8 12 09 00 00       	callq  404b76 <_ZNKSt4lessISsEclERKSsS2_>
  404264:	84 c0                	test   %al,%al
  404266:	74 07                	je     40426f <_ZNSt3mapISsiSt4lessISsESaISt4pairIKSsiEEEixERS3_+0xa5>
  404268:	b8 01 00 00 00       	mov    $0x1,%eax
  40426d:	eb 05                	jmp    404274 <_ZNSt3mapISsiSt4lessISsESaISt4pairIKSsiEEEixERS3_+0xaa>
  40426f:	b8 00 00 00 00       	mov    $0x0,%eax
  404274:	45 84 e4             	test   %r12b,%r12b
  404277:	84 db                	test   %bl,%bl
  404279:	84 c0                	test   %al,%al
  40427b:	74 45                	je     4042c2 <_ZNSt3mapISsiSt4lessISsESaISt4pairIKSsiEEEixERS3_+0xf8>
  40427d:	c7 45 dc 00 00 00 00 	movl   $0x0,-0x24(%rbp)
  404284:	48 8d 55 dc          	lea    -0x24(%rbp),%rdx
  404288:	48 8b 4d 90          	mov    -0x70(%rbp),%rcx
  40428c:	48 8d 45 c0          	lea    -0x40(%rbp),%rax
  404290:	48 89 ce             	mov    %rcx,%rsi
  404293:	48 89 c7             	mov    %rax,%rdi
  404296:	e8 27 09 00 00       	callq  404bc2 <_ZNSt4pairIKSsiEC1ERS0_RKi>
  40429b:	48 8d 55 c0          	lea    -0x40(%rbp),%rdx
  40429f:	48 8b 4d a0          	mov    -0x60(%rbp),%rcx
  4042a3:	48 8b 45 98          	mov    -0x68(%rbp),%rax
  4042a7:	48 89 ce             	mov    %rcx,%rsi
  4042aa:	48 89 c7             	mov    %rax,%rdi
  4042ad:	e8 46 09 00 00       	callq  404bf8 <_ZNSt3mapISsiSt4lessISsESaISt4pairIKSsiEEE6insertESt17_Rb_tree_iteratorIS4_ERKS4_>
  4042b2:	48 89 45 a0          	mov    %rax,-0x60(%rbp)
  4042b6:	48 8d 45 c0          	lea    -0x40(%rbp),%rax
  4042ba:	48 89 c7             	mov    %rax,%rdi
  4042bd:	e8 ee fe ff ff       	callq  4041b0 <_ZNSt4pairIKSsiED1Ev>
  4042c2:	48 8d 45 a0          	lea    -0x60(%rbp),%rax
  4042c6:	48 89 c7             	mov    %rax,%rdi
  4042c9:	e8 8a 08 00 00       	callq  404b58 <_ZNKSt17_Rb_tree_iteratorISt4pairIKSsiEEdeEv>
  4042ce:	48 83 c0 08          	add    $0x8,%rax
  4042d2:	eb 28                	jmp    4042fc <_ZNSt3mapISsiSt4lessISsESaISt4pairIKSsiEEEixERS3_+0x132>
  4042d4:	45 84 e4             	test   %r12b,%r12b
  4042d7:	84 db                	test   %bl,%bl
  4042d9:	90                   	nop
  4042da:	48 89 c7             	mov    %rax,%rdi
  4042dd:	e8 1e df ff ff       	callq  402200 <_Unwind_Resume@plt>
  4042e2:	48 89 c3             	mov    %rax,%rbx
  4042e5:	48 8d 45 c0          	lea    -0x40(%rbp),%rax
  4042e9:	48 89 c7             	mov    %rax,%rdi
  4042ec:	e8 bf fe ff ff       	callq  4041b0 <_ZNSt4pairIKSsiED1Ev>
  4042f1:	48 89 d8             	mov    %rbx,%rax
  4042f4:	48 89 c7             	mov    %rax,%rdi
  4042f7:	e8 04 df ff ff       	callq  402200 <_Unwind_Resume@plt>
  4042fc:	48 83 c4 58          	add    $0x58,%rsp
  404300:	5b                   	pop    %rbx
  404301:	41 5c                	pop    %r12
  404303:	41 5d                	pop    %r13
  404305:	5d                   	pop    %rbp
  404306:	c3                   	retq   
  404307:	90                   	nop

0000000000404308 <_ZNSt4pairIKiSsED1Ev>:
  404308:	55                   	push   %rbp
  404309:	48 89 e5             	mov    %rsp,%rbp
  40430c:	48 83 ec 10          	sub    $0x10,%rsp
  404310:	48 89 7d f8          	mov    %rdi,-0x8(%rbp)
  404314:	48 8b 45 f8          	mov    -0x8(%rbp),%rax
  404318:	48 83 c0 08          	add    $0x8,%rax
  40431c:	48 89 c7             	mov    %rax,%rdi
  40431f:	e8 8c dc ff ff       	callq  401fb0 <_ZNSsD1Ev@plt>
  404324:	c9                   	leaveq 
  404325:	c3                   	retq   

0000000000404326 <_ZNSt3mapIiSsSt4lessIiESaISt4pairIKiSsEEEixERS3_>:
  404326:	55                   	push   %rbp
  404327:	48 89 e5             	mov    %rsp,%rbp
  40432a:	41 55                	push   %r13
  40432c:	41 54                	push   %r12
  40432e:	53                   	push   %rbx
  40432f:	48 83 ec 58          	sub    $0x58,%rsp
  404333:	48 89 7d 98          	mov    %rdi,-0x68(%rbp)
  404337:	48 89 75 90          	mov    %rsi,-0x70(%rbp)
  40433b:	48 8b 55 90          	mov    -0x70(%rbp),%rdx
  40433f:	48 8b 45 98          	mov    -0x68(%rbp),%rax
  404343:	48 89 d6             	mov    %rdx,%rsi
  404346:	48 89 c7             	mov    %rax,%rdi
  404349:	e8 ea 08 00 00       	callq  404c38 <_ZNSt3mapIiSsSt4lessIiESaISt4pairIKiSsEEE11lower_boundERS3_>
  40434e:	48 89 45 a0          	mov    %rax,-0x60(%rbp)
  404352:	bb 00 00 00 00       	mov    $0x0,%ebx
  404357:	41 bc 00 00 00 00    	mov    $0x0,%r12d
  40435d:	48 8b 45 98          	mov    -0x68(%rbp),%rax
  404361:	48 89 c7             	mov    %rax,%rdi
  404364:	e8 59 09 00 00       	callq  404cc2 <_ZNSt3mapIiSsSt4lessIiESaISt4pairIKiSsEEE3endEv>
  404369:	48 89 45 b0          	mov    %rax,-0x50(%rbp)
  40436d:	bb 01 00 00 00       	mov    $0x1,%ebx
  404372:	48 8d 55 b0          	lea    -0x50(%rbp),%rdx
  404376:	48 8d 45 a0          	lea    -0x60(%rbp),%rax
  40437a:	48 89 d6             	mov    %rdx,%rsi
  40437d:	48 89 c7             	mov    %rax,%rdi
  404380:	e8 57 09 00 00       	callq  404cdc <_ZNKSt17_Rb_tree_iteratorISt4pairIKiSsEEeqERKS3_>
  404385:	84 c0                	test   %al,%al
  404387:	75 3b                	jne    4043c4 <_ZNSt3mapIiSsSt4lessIiESaISt4pairIKiSsEEEixERS3_+0x9e>
  404389:	48 8d 45 a0          	lea    -0x60(%rbp),%rax
  40438d:	48 89 c7             	mov    %rax,%rdi
  404390:	e8 eb 08 00 00       	callq  404c80 <_ZNKSt17_Rb_tree_iteratorISt4pairIKiSsEEdeEv>
  404395:	49 89 c5             	mov    %rax,%r13
  404398:	48 8b 45 98          	mov    -0x68(%rbp),%rax
  40439c:	48 89 c7             	mov    %rax,%rdi
  40439f:	e8 ba 08 00 00       	callq  404c5e <_ZNKSt3mapIiSsSt4lessIiESaISt4pairIKiSsEEE8key_compEv>
  4043a4:	41 bc 01 00 00 00    	mov    $0x1,%r12d
  4043aa:	48 8b 4d 90          	mov    -0x70(%rbp),%rcx
  4043ae:	48 8d 45 bf          	lea    -0x41(%rbp),%rax
  4043b2:	4c 89 ea             	mov    %r13,%rdx
  4043b5:	48 89 ce             	mov    %rcx,%rsi
  4043b8:	48 89 c7             	mov    %rax,%rdi
  4043bb:	e8 de 08 00 00       	callq  404c9e <_ZNKSt4lessIiEclERKiS2_>
  4043c0:	84 c0                	test   %al,%al
  4043c2:	74 07                	je     4043cb <_ZNSt3mapIiSsSt4lessIiESaISt4pairIKiSsEEEixERS3_+0xa5>
  4043c4:	b8 01 00 00 00       	mov    $0x1,%eax
  4043c9:	eb 05                	jmp    4043d0 <_ZNSt3mapIiSsSt4lessIiESaISt4pairIKiSsEEEixERS3_+0xaa>
  4043cb:	b8 00 00 00 00       	mov    $0x0,%eax
  4043d0:	45 84 e4             	test   %r12b,%r12b
  4043d3:	84 db                	test   %bl,%bl
  4043d5:	84 c0                	test   %al,%al
  4043d7:	74 56                	je     40442f <_ZNSt3mapIiSsSt4lessIiESaISt4pairIKiSsEEEixERS3_+0x109>
  4043d9:	48 8d 45 d0          	lea    -0x30(%rbp),%rax
  4043dd:	48 89 c7             	mov    %rax,%rdi
  4043e0:	e8 0b da ff ff       	callq  401df0 <_ZNSsC1Ev@plt>
  4043e5:	48 8d 55 d0          	lea    -0x30(%rbp),%rdx
  4043e9:	48 8b 4d 90          	mov    -0x70(%rbp),%rcx
  4043ed:	48 8d 45 c0          	lea    -0x40(%rbp),%rax
  4043f1:	48 89 ce             	mov    %rcx,%rsi
  4043f4:	48 89 c7             	mov    %rax,%rdi
  4043f7:	e8 02 09 00 00       	callq  404cfe <_ZNSt4pairIKiSsEC1ERS0_RKSs>
  4043fc:	48 8d 55 c0          	lea    -0x40(%rbp),%rdx
  404400:	48 8b 4d a0          	mov    -0x60(%rbp),%rcx
  404404:	48 8b 45 98          	mov    -0x68(%rbp),%rax
  404408:	48 89 ce             	mov    %rcx,%rsi
  40440b:	48 89 c7             	mov    %rax,%rdi
  40440e:	e8 25 09 00 00       	callq  404d38 <_ZNSt3mapIiSsSt4lessIiESaISt4pairIKiSsEEE6insertESt17_Rb_tree_iteratorIS4_ERKS4_>
  404413:	48 89 45 a0          	mov    %rax,-0x60(%rbp)
  404417:	48 8d 45 c0          	lea    -0x40(%rbp),%rax
  40441b:	48 89 c7             	mov    %rax,%rdi
  40441e:	e8 e5 fe ff ff       	callq  404308 <_ZNSt4pairIKiSsED1Ev>
  404423:	48 8d 45 d0          	lea    -0x30(%rbp),%rax
  404427:	48 89 c7             	mov    %rax,%rdi
  40442a:	e8 81 db ff ff       	callq  401fb0 <_ZNSsD1Ev@plt>
  40442f:	48 8d 45 a0          	lea    -0x60(%rbp),%rax
  404433:	48 89 c7             	mov    %rax,%rdi
  404436:	e8 45 08 00 00       	callq  404c80 <_ZNKSt17_Rb_tree_iteratorISt4pairIKiSsEEdeEv>
  40443b:	48 83 c0 08          	add    $0x8,%rax
  40443f:	eb 39                	jmp    40447a <_ZNSt3mapIiSsSt4lessIiESaISt4pairIKiSsEEEixERS3_+0x154>
  404441:	45 84 e4             	test   %r12b,%r12b
  404444:	84 db                	test   %bl,%bl
  404446:	90                   	nop
  404447:	48 89 c7             	mov    %rax,%rdi
  40444a:	e8 b1 dd ff ff       	callq  402200 <_Unwind_Resume@plt>
  40444f:	48 89 c3             	mov    %rax,%rbx
  404452:	48 8d 45 c0          	lea    -0x40(%rbp),%rax
  404456:	48 89 c7             	mov    %rax,%rdi
  404459:	e8 aa fe ff ff       	callq  404308 <_ZNSt4pairIKiSsED1Ev>
  40445e:	eb 03                	jmp    404463 <_ZNSt3mapIiSsSt4lessIiESaISt4pairIKiSsEEEixERS3_+0x13d>
  404460:	48 89 c3             	mov    %rax,%rbx
  404463:	48 8d 45 d0          	lea    -0x30(%rbp),%rax
  404467:	48 89 c7             	mov    %rax,%rdi
  40446a:	e8 41 db ff ff       	callq  401fb0 <_ZNSsD1Ev@plt>
  40446f:	48 89 d8             	mov    %rbx,%rax
  404472:	48 89 c7             	mov    %rax,%rdi
  404475:	e8 86 dd ff ff       	callq  402200 <_Unwind_Resume@plt>
  40447a:	48 83 c4 58          	add    $0x58,%rsp
  40447e:	5b                   	pop    %rbx
  40447f:	41 5c                	pop    %r12
  404481:	41 5d                	pop    %r13
  404483:	5d                   	pop    %rbp
  404484:	c3                   	retq   

0000000000404485 <_ZStneIcSt11char_traitsIcESaIcEEbRKSbIT_T0_T1_EPKS3_>:
  404485:	55                   	push   %rbp
  404486:	48 89 e5             	mov    %rsp,%rbp
  404489:	48 83 ec 10          	sub    $0x10,%rsp
  40448d:	48 89 7d f8          	mov    %rdi,-0x8(%rbp)
  404491:	48 89 75 f0          	mov    %rsi,-0x10(%rbp)
  404495:	48 8b 55 f0          	mov    -0x10(%rbp),%rdx
  404499:	48 8b 45 f8          	mov    -0x8(%rbp),%rax
  40449d:	48 89 d6             	mov    %rdx,%rsi
  4044a0:	48 89 c7             	mov    %rax,%rdi
  4044a3:	e8 d0 08 00 00       	callq  404d78 <_ZSteqIcSt11char_traitsIcESaIcEEbRKSbIT_T0_T1_EPKS3_>
  4044a8:	83 f0 01             	xor    $0x1,%eax
  4044ab:	c9                   	leaveq 
  4044ac:	c3                   	retq   
  4044ad:	90                   	nop

00000000004044ae <_ZNKSt3mapISsiSt4lessISsESaISt4pairIKSsiEEE4sizeEv>:
  4044ae:	55                   	push   %rbp
  4044af:	48 89 e5             	mov    %rsp,%rbp
  4044b2:	48 83 ec 10          	sub    $0x10,%rsp
  4044b6:	48 89 7d f8          	mov    %rdi,-0x8(%rbp)
  4044ba:	48 8b 45 f8          	mov    -0x8(%rbp),%rax
  4044be:	48 89 c7             	mov    %rax,%rdi
  4044c1:	e8 dc 08 00 00       	callq  404da2 <_ZNKSt8_Rb_treeISsSt4pairIKSsiESt10_Select1stIS2_ESt4lessISsESaIS2_EE4sizeEv>
  4044c6:	c9                   	leaveq 
  4044c7:	c3                   	retq   

00000000004044c8 <_ZNSt3mapISsiSt4lessISsESaISt4pairIKSsiEEEC1Ev>:
  4044c8:	55                   	push   %rbp
  4044c9:	48 89 e5             	mov    %rsp,%rbp
  4044cc:	48 83 ec 10          	sub    $0x10,%rsp
  4044d0:	48 89 7d f8          	mov    %rdi,-0x8(%rbp)
  4044d4:	48 8b 45 f8          	mov    -0x8(%rbp),%rax
  4044d8:	48 89 c7             	mov    %rax,%rdi
  4044db:	e8 d4 08 00 00       	callq  404db4 <_ZNSt8_Rb_treeISsSt4pairIKSsiESt10_Select1stIS2_ESt4lessISsESaIS2_EEC1Ev>
  4044e0:	c9                   	leaveq 
  4044e1:	c3                   	retq   

00000000004044e2 <_ZNSt3mapIiSsSt4lessIiESaISt4pairIKiSsEEEC1Ev>:
  4044e2:	55                   	push   %rbp
  4044e3:	48 89 e5             	mov    %rsp,%rbp
  4044e6:	48 83 ec 10          	sub    $0x10,%rsp
  4044ea:	48 89 7d f8          	mov    %rdi,-0x8(%rbp)
  4044ee:	48 8b 45 f8          	mov    -0x8(%rbp),%rax
  4044f2:	48 89 c7             	mov    %rax,%rdi
  4044f5:	e8 d4 08 00 00       	callq  404dce <_ZNSt8_Rb_treeIiSt4pairIKiSsESt10_Select1stIS2_ESt4lessIiESaIS2_EEC1Ev>
  4044fa:	c9                   	leaveq 
  4044fb:	c3                   	retq   

00000000004044fc <_ZNSt6vectorIiSaIiEEC1Ev>:
  4044fc:	55                   	push   %rbp
  4044fd:	48 89 e5             	mov    %rsp,%rbp
  404500:	48 83 ec 10          	sub    $0x10,%rsp
  404504:	48 89 7d f8          	mov    %rdi,-0x8(%rbp)
  404508:	48 8b 45 f8          	mov    -0x8(%rbp),%rax
  40450c:	48 89 c7             	mov    %rax,%rdi
  40450f:	e8 d4 08 00 00       	callq  404de8 <_ZNSt12_Vector_baseIiSaIiEEC1Ev>
  404514:	c9                   	leaveq 
  404515:	c3                   	retq   

0000000000404516 <_ZNSt6vectorIiSaIiEE9push_backERKi>:
  404516:	55                   	push   %rbp
  404517:	48 89 e5             	mov    %rsp,%rbp
  40451a:	48 83 ec 10          	sub    $0x10,%rsp
  40451e:	48 89 7d f8          	mov    %rdi,-0x8(%rbp)
  404522:	48 89 75 f0          	mov    %rsi,-0x10(%rbp)
  404526:	48 8b 45 f8          	mov    -0x8(%rbp),%rax
  40452a:	48 8b 50 08          	mov    0x8(%rax),%rdx
  40452e:	48 8b 45 f8          	mov    -0x8(%rbp),%rax
  404532:	48 8b 40 10          	mov    0x10(%rax),%rax
  404536:	48 39 c2             	cmp    %rax,%rdx
  404539:	74 31                	je     40456c <_ZNSt6vectorIiSaIiEE9push_backERKi+0x56>
  40453b:	48 8b 45 f8          	mov    -0x8(%rbp),%rax
  40453f:	48 8b 48 08          	mov    0x8(%rax),%rcx
  404543:	48 8b 45 f8          	mov    -0x8(%rbp),%rax
  404547:	48 8b 55 f0          	mov    -0x10(%rbp),%rdx
  40454b:	48 89 ce             	mov    %rcx,%rsi
  40454e:	48 89 c7             	mov    %rax,%rdi
  404551:	e8 ac 08 00 00       	callq  404e02 <_ZN9__gnu_cxx14__alloc_traitsISaIiEE9constructIiEEvRS1_PiRKT_>
  404556:	48 8b 45 f8          	mov    -0x8(%rbp),%rax
  40455a:	48 8b 40 08          	mov    0x8(%rax),%rax
  40455e:	48 8d 50 04          	lea    0x4(%rax),%rdx
  404562:	48 8b 45 f8          	mov    -0x8(%rbp),%rax
  404566:	48 89 50 08          	mov    %rdx,0x8(%rax)
  40456a:	eb 22                	jmp    40458e <_ZNSt6vectorIiSaIiEE9push_backERKi+0x78>
  40456c:	48 8b 45 f8          	mov    -0x8(%rbp),%rax
  404570:	48 89 c7             	mov    %rax,%rdi
  404573:	e8 a0 0b 00 00       	callq  405118 <_ZNSt6vectorIiSaIiEE3endEv>
  404578:	48 89 c1             	mov    %rax,%rcx
  40457b:	48 8b 55 f0          	mov    -0x10(%rbp),%rdx
  40457f:	48 8b 45 f8          	mov    -0x8(%rbp),%rax
  404583:	48 89 ce             	mov    %rcx,%rsi
  404586:	48 89 c7             	mov    %rax,%rdi
  404589:	e8 a2 08 00 00       	callq  404e30 <_ZNSt6vectorIiSaIiEE13_M_insert_auxEN9__gnu_cxx17__normal_iteratorIPiS1_EERKi>
  40458e:	c9                   	leaveq 
  40458f:	c3                   	retq   

0000000000404590 <_ZNSt3mapISsiSt4lessISsESaISt4pairIKSsiEEE4findERS3_>:
  404590:	55                   	push   %rbp
  404591:	48 89 e5             	mov    %rsp,%rbp
  404594:	48 83 ec 10          	sub    $0x10,%rsp
  404598:	48 89 7d f8          	mov    %rdi,-0x8(%rbp)
  40459c:	48 89 75 f0          	mov    %rsi,-0x10(%rbp)
  4045a0:	48 8b 45 f8          	mov    -0x8(%rbp),%rax
  4045a4:	48 8b 55 f0          	mov    -0x10(%rbp),%rdx
  4045a8:	48 89 d6             	mov    %rdx,%rsi
  4045ab:	48 89 c7             	mov    %rax,%rdi
  4045ae:	e8 8f 0b 00 00       	callq  405142 <_ZNSt8_Rb_treeISsSt4pairIKSsiESt10_Select1stIS2_ESt4lessISsESaIS2_EE4findERS1_>
  4045b3:	c9                   	leaveq 
  4045b4:	c3                   	retq   
  4045b5:	90                   	nop

00000000004045b6 <_ZNSt3mapISsiSt4lessISsESaISt4pairIKSsiEEE3endEv>:
  4045b6:	55                   	push   %rbp
  4045b7:	48 89 e5             	mov    %rsp,%rbp
  4045ba:	48 83 ec 10          	sub    $0x10,%rsp
  4045be:	48 89 7d f8          	mov    %rdi,-0x8(%rbp)
  4045c2:	48 8b 45 f8          	mov    -0x8(%rbp),%rax
  4045c6:	48 89 c7             	mov    %rax,%rdi
  4045c9:	e8 3c 0c 00 00       	callq  40520a <_ZNSt8_Rb_treeISsSt4pairIKSsiESt10_Select1stIS2_ESt4lessISsESaIS2_EE3endEv>
  4045ce:	c9                   	leaveq 
  4045cf:	c3                   	retq   

00000000004045d0 <_ZNKSt17_Rb_tree_iteratorISt4pairIKSsiEEneERKS3_>:
  4045d0:	55                   	push   %rbp
  4045d1:	48 89 e5             	mov    %rsp,%rbp
  4045d4:	48 89 7d f8          	mov    %rdi,-0x8(%rbp)
  4045d8:	48 89 75 f0          	mov    %rsi,-0x10(%rbp)
  4045dc:	48 8b 45 f8          	mov    -0x8(%rbp),%rax
  4045e0:	48 8b 10             	mov    (%rax),%rdx
  4045e3:	48 8b 45 f0          	mov    -0x10(%rbp),%rax
  4045e7:	48 8b 00             	mov    (%rax),%rax
  4045ea:	48 39 c2             	cmp    %rax,%rdx
  4045ed:	0f 95 c0             	setne  %al
  4045f0:	5d                   	pop    %rbp
  4045f1:	c3                   	retq   

00000000004045f2 <_ZNSt3mapISsiSt4lessISsESaISt4pairIKSsiEEEaSERKS6_>:
  4045f2:	55                   	push   %rbp
  4045f3:	48 89 e5             	mov    %rsp,%rbp
  4045f6:	48 83 ec 10          	sub    $0x10,%rsp
  4045fa:	48 89 7d f8          	mov    %rdi,-0x8(%rbp)
  4045fe:	48 89 75 f0          	mov    %rsi,-0x10(%rbp)
  404602:	48 8b 55 f0          	mov    -0x10(%rbp),%rdx
  404606:	48 8b 45 f8          	mov    -0x8(%rbp),%rax
  40460a:	48 89 d6             	mov    %rdx,%rsi
  40460d:	48 89 c7             	mov    %rax,%rdi
  404610:	e8 1f 0c 00 00       	callq  405234 <_ZNSt8_Rb_treeISsSt4pairIKSsiESt10_Select1stIS2_ESt4lessISsESaIS2_EEaSERKS8_>
  404615:	48 8b 45 f8          	mov    -0x8(%rbp),%rax
  404619:	c9                   	leaveq 
  40461a:	c3                   	retq   
  40461b:	90                   	nop

000000000040461c <_ZNSt3mapIiSsSt4lessIiESaISt4pairIKiSsEEEaSERKS6_>:
  40461c:	55                   	push   %rbp
  40461d:	48 89 e5             	mov    %rsp,%rbp
  404620:	48 83 ec 10          	sub    $0x10,%rsp
  404624:	48 89 7d f8          	mov    %rdi,-0x8(%rbp)
  404628:	48 89 75 f0          	mov    %rsi,-0x10(%rbp)
  40462c:	48 8b 55 f0          	mov    -0x10(%rbp),%rdx
  404630:	48 8b 45 f8          	mov    -0x8(%rbp),%rax
  404634:	48 89 d6             	mov    %rdx,%rsi
  404637:	48 89 c7             	mov    %rax,%rdi
  40463a:	e8 ed 0c 00 00       	callq  40532c <_ZNSt8_Rb_treeIiSt4pairIKiSsESt10_Select1stIS2_ESt4lessIiESaIS2_EEaSERKS8_>
  40463f:	48 8b 45 f8          	mov    -0x8(%rbp),%rax
  404643:	c9                   	leaveq 
  404644:	c3                   	retq   
  404645:	90                   	nop

0000000000404646 <_ZNSt6vectorIiSaIiEEixEm>:
  404646:	55                   	push   %rbp
  404647:	48 89 e5             	mov    %rsp,%rbp
  40464a:	48 89 7d f8          	mov    %rdi,-0x8(%rbp)
  40464e:	48 89 75 f0          	mov    %rsi,-0x10(%rbp)
  404652:	48 8b 45 f8          	mov    -0x8(%rbp),%rax
  404656:	48 8b 00             	mov    (%rax),%rax
  404659:	48 8b 55 f0          	mov    -0x10(%rbp),%rdx
  40465d:	48 c1 e2 02          	shl    $0x2,%rdx
  404661:	48 01 d0             	add    %rdx,%rax
  404664:	5d                   	pop    %rbp
  404665:	c3                   	retq   

0000000000404666 <_ZNKSt6vectorIiSaIiEE4sizeEv>:
  404666:	55                   	push   %rbp
  404667:	48 89 e5             	mov    %rsp,%rbp
  40466a:	48 89 7d f8          	mov    %rdi,-0x8(%rbp)
  40466e:	48 8b 45 f8          	mov    -0x8(%rbp),%rax
  404672:	48 8b 40 08          	mov    0x8(%rax),%rax
  404676:	48 89 c2             	mov    %rax,%rdx
  404679:	48 8b 45 f8          	mov    -0x8(%rbp),%rax
  40467d:	48 8b 00             	mov    (%rax),%rax
  404680:	48 29 c2             	sub    %rax,%rdx
  404683:	48 89 d0             	mov    %rdx,%rax
  404686:	48 c1 f8 02          	sar    $0x2,%rax
  40468a:	5d                   	pop    %rbp
  40468b:	c3                   	retq   

000000000040468c <_ZNSt6vectorIiSaIiEEaSERKS1_>:
  40468c:	55                   	push   %rbp
  40468d:	48 89 e5             	mov    %rsp,%rbp
  404690:	41 56                	push   %r14
  404692:	41 55                	push   %r13
  404694:	41 54                	push   %r12
  404696:	53                   	push   %rbx
  404697:	48 83 ec 20          	sub    $0x20,%rsp
  40469b:	48 89 7d c8          	mov    %rdi,-0x38(%rbp)
  40469f:	48 89 75 c0          	mov    %rsi,-0x40(%rbp)
  4046a3:	48 8b 45 c0          	mov    -0x40(%rbp),%rax
  4046a7:	48 3b 45 c8          	cmp    -0x38(%rbp),%rax
  4046ab:	0f 84 03 02 00 00    	je     4048b4 <_ZNSt6vectorIiSaIiEEaSERKS1_+0x228>
  4046b1:	48 8b 45 c0          	mov    -0x40(%rbp),%rax
  4046b5:	48 89 c7             	mov    %rax,%rdi
  4046b8:	e8 a9 ff ff ff       	callq  404666 <_ZNKSt6vectorIiSaIiEE4sizeEv>
  4046bd:	48 89 45 d8          	mov    %rax,-0x28(%rbp)
  4046c1:	48 8b 45 c8          	mov    -0x38(%rbp),%rax
  4046c5:	48 89 c7             	mov    %rax,%rdi
  4046c8:	e8 57 0d 00 00       	callq  405424 <_ZNKSt6vectorIiSaIiEE8capacityEv>
  4046cd:	48 3b 45 d8          	cmp    -0x28(%rbp),%rax
  4046d1:	0f 92 c0             	setb   %al
  4046d4:	84 c0                	test   %al,%al
  4046d6:	0f 84 bd 00 00 00    	je     404799 <_ZNSt6vectorIiSaIiEEaSERKS1_+0x10d>
  4046dc:	48 8b 45 c0          	mov    -0x40(%rbp),%rax
  4046e0:	48 89 c7             	mov    %rax,%rdi
  4046e3:	e8 92 0d 00 00       	callq  40547a <_ZNKSt6vectorIiSaIiEE3endEv>
  4046e8:	48 89 c3             	mov    %rax,%rbx
  4046eb:	48 8b 45 c0          	mov    -0x40(%rbp),%rax
  4046ef:	48 89 c7             	mov    %rax,%rdi
  4046f2:	e8 53 0d 00 00       	callq  40544a <_ZNKSt6vectorIiSaIiEE5beginEv>
  4046f7:	48 89 c2             	mov    %rax,%rdx
  4046fa:	48 8b 75 d8          	mov    -0x28(%rbp),%rsi
  4046fe:	48 8b 45 c8          	mov    -0x38(%rbp),%rax
  404702:	48 89 d9             	mov    %rbx,%rcx
  404705:	48 89 c7             	mov    %rax,%rdi
  404708:	e8 9f 0d 00 00       	callq  4054ac <_ZNSt6vectorIiSaIiEE20_M_allocate_and_copyIN9__gnu_cxx17__normal_iteratorIPKiS1_EEEEPimT_S9_>
  40470d:	48 89 45 d0          	mov    %rax,-0x30(%rbp)
  404711:	48 8b 45 c8          	mov    -0x38(%rbp),%rax
  404715:	48 89 c7             	mov    %rax,%rdi
  404718:	e8 bb 03 00 00       	callq  404ad8 <_ZNSt12_Vector_baseIiSaIiEE19_M_get_Tp_allocatorEv>
  40471d:	48 89 c2             	mov    %rax,%rdx
  404720:	48 8b 45 c8          	mov    -0x38(%rbp),%rax
  404724:	48 8b 48 08          	mov    0x8(%rax),%rcx
  404728:	48 8b 45 c8          	mov    -0x38(%rbp),%rax
  40472c:	48 8b 00             	mov    (%rax),%rax
  40472f:	48 89 ce             	mov    %rcx,%rsi
  404732:	48 89 c7             	mov    %rax,%rdi
  404735:	e8 ac 03 00 00       	callq  404ae6 <_ZSt8_DestroyIPiiEvT_S1_RSaIT0_E>
  40473a:	48 8b 45 c8          	mov    -0x38(%rbp),%rax
  40473e:	48 8b 40 10          	mov    0x10(%rax),%rax
  404742:	48 89 c2             	mov    %rax,%rdx
  404745:	48 8b 45 c8          	mov    -0x38(%rbp),%rax
  404749:	48 8b 00             	mov    (%rax),%rax
  40474c:	48 29 c2             	sub    %rax,%rdx
  40474f:	48 89 d0             	mov    %rdx,%rax
  404752:	48 c1 f8 02          	sar    $0x2,%rax
  404756:	48 89 c2             	mov    %rax,%rdx
  404759:	48 8b 45 c8          	mov    -0x38(%rbp),%rax
  40475d:	48 8b 08             	mov    (%rax),%rcx
  404760:	48 8b 45 c8          	mov    -0x38(%rbp),%rax
  404764:	48 89 ce             	mov    %rcx,%rsi
  404767:	48 89 c7             	mov    %rax,%rdi
  40476a:	e8 d5 0d 00 00       	callq  405544 <_ZNSt12_Vector_baseIiSaIiEE13_M_deallocateEPim>
  40476f:	48 8b 45 c8          	mov    -0x38(%rbp),%rax
  404773:	48 8b 55 d0          	mov    -0x30(%rbp),%rdx
  404777:	48 89 10             	mov    %rdx,(%rax)
  40477a:	48 8b 45 c8          	mov    -0x38(%rbp),%rax
  40477e:	48 8b 00             	mov    (%rax),%rax
  404781:	48 8b 55 d8          	mov    -0x28(%rbp),%rdx
  404785:	48 c1 e2 02          	shl    $0x2,%rdx
  404789:	48 01 c2             	add    %rax,%rdx
  40478c:	48 8b 45 c8          	mov    -0x38(%rbp),%rax
  404790:	48 89 50 10          	mov    %rdx,0x10(%rax)
  404794:	e9 01 01 00 00       	jmpq   40489a <_ZNSt6vectorIiSaIiEEaSERKS1_+0x20e>
  404799:	48 8b 45 c8          	mov    -0x38(%rbp),%rax
  40479d:	48 89 c7             	mov    %rax,%rdi
  4047a0:	e8 c1 fe ff ff       	callq  404666 <_ZNKSt6vectorIiSaIiEE4sizeEv>
  4047a5:	48 3b 45 d8          	cmp    -0x28(%rbp),%rax
  4047a9:	0f 93 c0             	setae  %al
  4047ac:	84 c0                	test   %al,%al
  4047ae:	74 69                	je     404819 <_ZNSt6vectorIiSaIiEEaSERKS1_+0x18d>
  4047b0:	48 8b 45 c8          	mov    -0x38(%rbp),%rax
  4047b4:	48 89 c7             	mov    %rax,%rdi
  4047b7:	e8 1c 03 00 00       	callq  404ad8 <_ZNSt12_Vector_baseIiSaIiEE19_M_get_Tp_allocatorEv>
  4047bc:	49 89 c4             	mov    %rax,%r12
  4047bf:	48 8b 45 c8          	mov    -0x38(%rbp),%rax
  4047c3:	48 89 c7             	mov    %rax,%rdi
  4047c6:	e8 4d 09 00 00       	callq  405118 <_ZNSt6vectorIiSaIiEE3endEv>
  4047cb:	48 89 c3             	mov    %rax,%rbx
  4047ce:	48 8b 45 c8          	mov    -0x38(%rbp),%rax
  4047d2:	48 89 c7             	mov    %rax,%rdi
  4047d5:	e8 9e 0d 00 00       	callq  405578 <_ZNSt6vectorIiSaIiEE5beginEv>
  4047da:	49 89 c6             	mov    %rax,%r14
  4047dd:	48 8b 45 c0          	mov    -0x40(%rbp),%rax
  4047e1:	48 89 c7             	mov    %rax,%rdi
  4047e4:	e8 91 0c 00 00       	callq  40547a <_ZNKSt6vectorIiSaIiEE3endEv>
  4047e9:	49 89 c5             	mov    %rax,%r13
  4047ec:	48 8b 45 c0          	mov    -0x40(%rbp),%rax
  4047f0:	48 89 c7             	mov    %rax,%rdi
  4047f3:	e8 52 0c 00 00       	callq  40544a <_ZNKSt6vectorIiSaIiEE5beginEv>
  4047f8:	4c 89 f2             	mov    %r14,%rdx
  4047fb:	4c 89 ee             	mov    %r13,%rsi
  4047fe:	48 89 c7             	mov    %rax,%rdi
  404801:	e8 97 0d 00 00       	callq  40559d <_ZSt4copyIN9__gnu_cxx17__normal_iteratorIPKiSt6vectorIiSaIiEEEENS1_IPiS6_EEET0_T_SB_SA_>
  404806:	4c 89 e2             	mov    %r12,%rdx
  404809:	48 89 de             	mov    %rbx,%rsi
  40480c:	48 89 c7             	mov    %rax,%rdi
  40480f:	e8 d5 0d 00 00       	callq  4055e9 <_ZSt8_DestroyIN9__gnu_cxx17__normal_iteratorIPiSt6vectorIiSaIiEEEEiEvT_S7_RSaIT0_E>
  404814:	e9 81 00 00 00       	jmpq   40489a <_ZNSt6vectorIiSaIiEEaSERKS1_+0x20e>
  404819:	48 8b 45 c8          	mov    -0x38(%rbp),%rax
  40481d:	48 8b 18             	mov    (%rax),%rbx
  404820:	48 8b 45 c0          	mov    -0x40(%rbp),%rax
  404824:	4c 8b 20             	mov    (%rax),%r12
  404827:	48 8b 45 c8          	mov    -0x38(%rbp),%rax
  40482b:	48 89 c7             	mov    %rax,%rdi
  40482e:	e8 33 fe ff ff       	callq  404666 <_ZNKSt6vectorIiSaIiEE4sizeEv>
  404833:	48 c1 e0 02          	shl    $0x2,%rax
  404837:	49 8d 0c 04          	lea    (%r12,%rax,1),%rcx
  40483b:	48 8b 45 c0          	mov    -0x40(%rbp),%rax
  40483f:	48 8b 00             	mov    (%rax),%rax
  404842:	48 89 da             	mov    %rbx,%rdx
  404845:	48 89 ce             	mov    %rcx,%rsi
  404848:	48 89 c7             	mov    %rax,%rdi
  40484b:	e8 c2 0d 00 00       	callq  405612 <_ZSt4copyIPiS0_ET0_T_S2_S1_>
  404850:	48 8b 45 c8          	mov    -0x38(%rbp),%rax
  404854:	48 89 c7             	mov    %rax,%rdi
  404857:	e8 7c 02 00 00       	callq  404ad8 <_ZNSt12_Vector_baseIiSaIiEE19_M_get_Tp_allocatorEv>
  40485c:	49 89 c6             	mov    %rax,%r14
  40485f:	48 8b 45 c8          	mov    -0x38(%rbp),%rax
  404863:	4c 8b 60 08          	mov    0x8(%rax),%r12
  404867:	48 8b 45 c0          	mov    -0x40(%rbp),%rax
  40486b:	48 8b 58 08          	mov    0x8(%rax),%rbx
  40486f:	48 8b 45 c0          	mov    -0x40(%rbp),%rax
  404873:	4c 8b 28             	mov    (%rax),%r13
  404876:	48 8b 45 c8          	mov    -0x38(%rbp),%rax
  40487a:	48 89 c7             	mov    %rax,%rdi
  40487d:	e8 e4 fd ff ff       	callq  404666 <_ZNKSt6vectorIiSaIiEE4sizeEv>
  404882:	48 c1 e0 02          	shl    $0x2,%rax
  404886:	4c 01 e8             	add    %r13,%rax
  404889:	4c 89 f1             	mov    %r14,%rcx
  40488c:	4c 89 e2             	mov    %r12,%rdx
  40488f:	48 89 de             	mov    %rbx,%rsi
  404892:	48 89 c7             	mov    %rax,%rdi
  404895:	e8 c4 0d 00 00       	callq  40565e <_ZSt22__uninitialized_copy_aIPiS0_iET0_T_S2_S1_RSaIT1_E>
  40489a:	48 8b 45 c8          	mov    -0x38(%rbp),%rax
  40489e:	48 8b 00             	mov    (%rax),%rax
  4048a1:	48 8b 55 d8          	mov    -0x28(%rbp),%rdx
  4048a5:	48 c1 e2 02          	shl    $0x2,%rdx
  4048a9:	48 01 c2             	add    %rax,%rdx
  4048ac:	48 8b 45 c8          	mov    -0x38(%rbp),%rax
  4048b0:	48 89 50 08          	mov    %rdx,0x8(%rax)
  4048b4:	48 8b 45 c8          	mov    -0x38(%rbp),%rax
  4048b8:	48 83 c4 20          	add    $0x20,%rsp
  4048bc:	5b                   	pop    %rbx
  4048bd:	41 5c                	pop    %r12
  4048bf:	41 5d                	pop    %r13
  4048c1:	41 5e                	pop    %r14
  4048c3:	5d                   	pop    %rbp
  4048c4:	c3                   	retq   
  4048c5:	90                   	nop

00000000004048c6 <_ZNKSt6vectorIiSaIiEEixEm>:
  4048c6:	55                   	push   %rbp
  4048c7:	48 89 e5             	mov    %rsp,%rbp
  4048ca:	48 89 7d f8          	mov    %rdi,-0x8(%rbp)
  4048ce:	48 89 75 f0          	mov    %rsi,-0x10(%rbp)
  4048d2:	48 8b 45 f8          	mov    -0x8(%rbp),%rax
  4048d6:	48 8b 00             	mov    (%rax),%rax
  4048d9:	48 8b 55 f0          	mov    -0x10(%rbp),%rdx
  4048dd:	48 c1 e2 02          	shl    $0x2,%rdx
  4048e1:	48 01 d0             	add    %rdx,%rax
  4048e4:	5d                   	pop    %rbp
  4048e5:	c3                   	retq   

00000000004048e6 <_ZNKSt6vectorISsSaISsEE4sizeEv>:
  4048e6:	55                   	push   %rbp
  4048e7:	48 89 e5             	mov    %rsp,%rbp
  4048ea:	48 89 7d f8          	mov    %rdi,-0x8(%rbp)
  4048ee:	48 8b 45 f8          	mov    -0x8(%rbp),%rax
  4048f2:	48 8b 40 08          	mov    0x8(%rax),%rax
  4048f6:	48 89 c2             	mov    %rax,%rdx
  4048f9:	48 8b 45 f8          	mov    -0x8(%rbp),%rax
  4048fd:	48 8b 00             	mov    (%rax),%rax
  404900:	48 29 c2             	sub    %rax,%rdx
  404903:	48 89 d0             	mov    %rdx,%rax
  404906:	48 c1 f8 03          	sar    $0x3,%rax
  40490a:	5d                   	pop    %rbp
  40490b:	c3                   	retq   

000000000040490c <_ZNKSt6vectorISsSaISsEEixEm>:
  40490c:	55                   	push   %rbp
  40490d:	48 89 e5             	mov    %rsp,%rbp
  404910:	48 89 7d f8          	mov    %rdi,-0x8(%rbp)
  404914:	48 89 75 f0          	mov    %rsi,-0x10(%rbp)
  404918:	48 8b 45 f8          	mov    -0x8(%rbp),%rax
  40491c:	48 8b 00             	mov    (%rax),%rax
  40491f:	48 8b 55 f0          	mov    -0x10(%rbp),%rdx
  404923:	48 c1 e2 03          	shl    $0x3,%rdx
  404927:	48 01 d0             	add    %rdx,%rax
  40492a:	5d                   	pop    %rbp
  40492b:	c3                   	retq   

000000000040492c <_ZNSaISt13_Rb_tree_nodeISt4pairIKSsiEEED1Ev>:
  40492c:	55                   	push   %rbp
  40492d:	48 89 e5             	mov    %rsp,%rbp
  404930:	48 83 ec 10          	sub    $0x10,%rsp
  404934:	48 89 7d f8          	mov    %rdi,-0x8(%rbp)
  404938:	48 8b 45 f8          	mov    -0x8(%rbp),%rax
  40493c:	48 89 c7             	mov    %rax,%rdi
  40493f:	e8 4c 0d 00 00       	callq  405690 <_ZN9__gnu_cxx13new_allocatorISt13_Rb_tree_nodeISt4pairIKSsiEEED1Ev>
  404944:	c9                   	leaveq 
  404945:	c3                   	retq   

0000000000404946 <_ZNSt8_Rb_treeISsSt4pairIKSsiESt10_Select1stIS2_ESt4lessISsESaIS2_EE8_M_eraseEPSt13_Rb_tree_nodeIS2_E>:
  404946:	55                   	push   %rbp
  404947:	48 89 e5             	mov    %rsp,%rbp
  40494a:	48 83 ec 20          	sub    $0x20,%rsp
  40494e:	48 89 7d e8          	mov    %rdi,-0x18(%rbp)
  404952:	48 89 75 e0          	mov    %rsi,-0x20(%rbp)
  404956:	eb 49                	jmp    4049a1 <_ZNSt8_Rb_treeISsSt4pairIKSsiESt10_Select1stIS2_ESt4lessISsESaIS2_EE8_M_eraseEPSt13_Rb_tree_nodeIS2_E+0x5b>
  404958:	48 8b 45 e0          	mov    -0x20(%rbp),%rax
  40495c:	48 89 c7             	mov    %rax,%rdi
  40495f:	e8 36 0d 00 00       	callq  40569a <_ZNSt8_Rb_treeISsSt4pairIKSsiESt10_Select1stIS2_ESt4lessISsESaIS2_EE8_S_rightEPSt18_Rb_tree_node_base>
  404964:	48 89 c2             	mov    %rax,%rdx
  404967:	48 8b 45 e8          	mov    -0x18(%rbp),%rax
  40496b:	48 89 d6             	mov    %rdx,%rsi
  40496e:	48 89 c7             	mov    %rax,%rdi
  404971:	e8 d0 ff ff ff       	callq  404946 <_ZNSt8_Rb_treeISsSt4pairIKSsiESt10_Select1stIS2_ESt4lessISsESaIS2_EE8_M_eraseEPSt13_Rb_tree_nodeIS2_E>
  404976:	48 8b 45 e0          	mov    -0x20(%rbp),%rax
  40497a:	48 89 c7             	mov    %rax,%rdi
  40497d:	e8 2a 0d 00 00       	callq  4056ac <_ZNSt8_Rb_treeISsSt4pairIKSsiESt10_Select1stIS2_ESt4lessISsESaIS2_EE7_S_leftEPSt18_Rb_tree_node_base>
  404982:	48 89 45 f8          	mov    %rax,-0x8(%rbp)
  404986:	48 8b 55 e0          	mov    -0x20(%rbp),%rdx
  40498a:	48 8b 45 e8          	mov    -0x18(%rbp),%rax
  40498e:	48 89 d6             	mov    %rdx,%rsi
  404991:	48 89 c7             	mov    %rax,%rdi
  404994:	e8 25 0d 00 00       	callq  4056be <_ZNSt8_Rb_treeISsSt4pairIKSsiESt10_Select1stIS2_ESt4lessISsESaIS2_EE15_M_destroy_nodeEPSt13_Rb_tree_nodeIS2_E>
  404999:	48 8b 45 f8          	mov    -0x8(%rbp),%rax
  40499d:	48 89 45 e0          	mov    %rax,-0x20(%rbp)
  4049a1:	48 83 7d e0 00       	cmpq   $0x0,-0x20(%rbp)
  4049a6:	75 b0                	jne    404958 <_ZNSt8_Rb_treeISsSt4pairIKSsiESt10_Select1stIS2_ESt4lessISsESaIS2_EE8_M_eraseEPSt13_Rb_tree_nodeIS2_E+0x12>
  4049a8:	c9                   	leaveq 
  4049a9:	c3                   	retq   

00000000004049aa <_ZNSt8_Rb_treeISsSt4pairIKSsiESt10_Select1stIS2_ESt4lessISsESaIS2_EE8_M_beginEv>:
  4049aa:	55                   	push   %rbp
  4049ab:	48 89 e5             	mov    %rsp,%rbp
  4049ae:	48 89 7d f8          	mov    %rdi,-0x8(%rbp)
  4049b2:	48 8b 45 f8          	mov    -0x8(%rbp),%rax
  4049b6:	48 8b 40 10          	mov    0x10(%rax),%rax
  4049ba:	5d                   	pop    %rbp
  4049bb:	c3                   	retq   

00000000004049bc <_ZNSaISt13_Rb_tree_nodeISt4pairIKiSsEEED1Ev>:
  4049bc:	55                   	push   %rbp
  4049bd:	48 89 e5             	mov    %rsp,%rbp
  4049c0:	48 83 ec 10          	sub    $0x10,%rsp
  4049c4:	48 89 7d f8          	mov    %rdi,-0x8(%rbp)
  4049c8:	48 8b 45 f8          	mov    -0x8(%rbp),%rax
  4049cc:	48 89 c7             	mov    %rax,%rdi
  4049cf:	e8 6e 0d 00 00       	callq  405742 <_ZN9__gnu_cxx13new_allocatorISt13_Rb_tree_nodeISt4pairIKiSsEEED1Ev>
  4049d4:	c9                   	leaveq 
  4049d5:	c3                   	retq   

00000000004049d6 <_ZNSt8_Rb_treeIiSt4pairIKiSsESt10_Select1stIS2_ESt4lessIiESaIS2_EE8_M_eraseEPSt13_Rb_tree_nodeIS2_E>:
  4049d6:	55                   	push   %rbp
  4049d7:	48 89 e5             	mov    %rsp,%rbp
  4049da:	48 83 ec 20          	sub    $0x20,%rsp
  4049de:	48 89 7d e8          	mov    %rdi,-0x18(%rbp)
  4049e2:	48 89 75 e0          	mov    %rsi,-0x20(%rbp)
  4049e6:	eb 49                	jmp    404a31 <_ZNSt8_Rb_treeIiSt4pairIKiSsESt10_Select1stIS2_ESt4lessIiESaIS2_EE8_M_eraseEPSt13_Rb_tree_nodeIS2_E+0x5b>
  4049e8:	48 8b 45 e0          	mov    -0x20(%rbp),%rax
  4049ec:	48 89 c7             	mov    %rax,%rdi
  4049ef:	e8 58 0d 00 00       	callq  40574c <_ZNSt8_Rb_treeIiSt4pairIKiSsESt10_Select1stIS2_ESt4lessIiESaIS2_EE8_S_rightEPSt18_Rb_tree_node_base>
  4049f4:	48 89 c2             	mov    %rax,%rdx
  4049f7:	48 8b 45 e8          	mov    -0x18(%rbp),%rax
  4049fb:	48 89 d6             	mov    %rdx,%rsi
  4049fe:	48 89 c7             	mov    %rax,%rdi
  404a01:	e8 d0 ff ff ff       	callq  4049d6 <_ZNSt8_Rb_treeIiSt4pairIKiSsESt10_Select1stIS2_ESt4lessIiESaIS2_EE8_M_eraseEPSt13_Rb_tree_nodeIS2_E>
  404a06:	48 8b 45 e0          	mov    -0x20(%rbp),%rax
  404a0a:	48 89 c7             	mov    %rax,%rdi
  404a0d:	e8 4c 0d 00 00       	callq  40575e <_ZNSt8_Rb_treeIiSt4pairIKiSsESt10_Select1stIS2_ESt4lessIiESaIS2_EE7_S_leftEPSt18_Rb_tree_node_base>
  404a12:	48 89 45 f8          	mov    %rax,-0x8(%rbp)
  404a16:	48 8b 55 e0          	mov    -0x20(%rbp),%rdx
  404a1a:	48 8b 45 e8          	mov    -0x18(%rbp),%rax
  404a1e:	48 89 d6             	mov    %rdx,%rsi
  404a21:	48 89 c7             	mov    %rax,%rdi
  404a24:	e8 47 0d 00 00       	callq  405770 <_ZNSt8_Rb_treeIiSt4pairIKiSsESt10_Select1stIS2_ESt4lessIiESaIS2_EE15_M_destroy_nodeEPSt13_Rb_tree_nodeIS2_E>
  404a29:	48 8b 45 f8          	mov    -0x8(%rbp),%rax
  404a2d:	48 89 45 e0          	mov    %rax,-0x20(%rbp)
  404a31:	48 83 7d e0 00       	cmpq   $0x0,-0x20(%rbp)
  404a36:	75 b0                	jne    4049e8 <_ZNSt8_Rb_treeIiSt4pairIKiSsESt10_Select1stIS2_ESt4lessIiESaIS2_EE8_M_eraseEPSt13_Rb_tree_nodeIS2_E+0x12>
  404a38:	c9                   	leaveq 
  404a39:	c3                   	retq   

0000000000404a3a <_ZNSt8_Rb_treeIiSt4pairIKiSsESt10_Select1stIS2_ESt4lessIiESaIS2_EE8_M_beginEv>:
  404a3a:	55                   	push   %rbp
  404a3b:	48 89 e5             	mov    %rsp,%rbp
  404a3e:	48 89 7d f8          	mov    %rdi,-0x8(%rbp)
  404a42:	48 8b 45 f8          	mov    -0x8(%rbp),%rax
  404a46:	48 8b 40 10          	mov    0x10(%rax),%rax
  404a4a:	5d                   	pop    %rbp
  404a4b:	c3                   	retq   

0000000000404a4c <_ZNSt12_Vector_baseIiSaIiEE12_Vector_implD1Ev>:
  404a4c:	55                   	push   %rbp
  404a4d:	48 89 e5             	mov    %rsp,%rbp
  404a50:	48 83 ec 10          	sub    $0x10,%rsp
  404a54:	48 89 7d f8          	mov    %rdi,-0x8(%rbp)
  404a58:	48 8b 45 f8          	mov    -0x8(%rbp),%rax
  404a5c:	48 89 c7             	mov    %rax,%rdi
  404a5f:	e8 90 0d 00 00       	callq  4057f4 <_ZNSaIiED1Ev>
  404a64:	c9                   	leaveq 
  404a65:	c3                   	retq   

0000000000404a66 <_ZNSt12_Vector_baseIiSaIiEED1Ev>:
  404a66:	55                   	push   %rbp
  404a67:	48 89 e5             	mov    %rsp,%rbp
  404a6a:	53                   	push   %rbx
  404a6b:	48 83 ec 18          	sub    $0x18,%rsp
  404a6f:	48 89 7d e8          	mov    %rdi,-0x18(%rbp)
  404a73:	48 8b 45 e8          	mov    -0x18(%rbp),%rax
  404a77:	48 8b 40 10          	mov    0x10(%rax),%rax
  404a7b:	48 89 c2             	mov    %rax,%rdx
  404a7e:	48 8b 45 e8          	mov    -0x18(%rbp),%rax
  404a82:	48 8b 00             	mov    (%rax),%rax
  404a85:	48 29 c2             	sub    %rax,%rdx
  404a88:	48 89 d0             	mov    %rdx,%rax
  404a8b:	48 c1 f8 02          	sar    $0x2,%rax
  404a8f:	48 89 c2             	mov    %rax,%rdx
  404a92:	48 8b 45 e8          	mov    -0x18(%rbp),%rax
  404a96:	48 8b 08             	mov    (%rax),%rcx
  404a99:	48 8b 45 e8          	mov    -0x18(%rbp),%rax
  404a9d:	48 89 ce             	mov    %rcx,%rsi
  404aa0:	48 89 c7             	mov    %rax,%rdi
  404aa3:	e8 9c 0a 00 00       	callq  405544 <_ZNSt12_Vector_baseIiSaIiEE13_M_deallocateEPim>
  404aa8:	48 8b 45 e8          	mov    -0x18(%rbp),%rax
  404aac:	48 89 c7             	mov    %rax,%rdi
  404aaf:	e8 98 ff ff ff       	callq  404a4c <_ZNSt12_Vector_baseIiSaIiEE12_Vector_implD1Ev>
  404ab4:	eb 1a                	jmp    404ad0 <_ZNSt12_Vector_baseIiSaIiEED1Ev+0x6a>
  404ab6:	48 89 c3             	mov    %rax,%rbx
  404ab9:	48 8b 45 e8          	mov    -0x18(%rbp),%rax
  404abd:	48 89 c7             	mov    %rax,%rdi
  404ac0:	e8 87 ff ff ff       	callq  404a4c <_ZNSt12_Vector_baseIiSaIiEE12_Vector_implD1Ev>
  404ac5:	48 89 d8             	mov    %rbx,%rax
  404ac8:	48 89 c7             	mov    %rax,%rdi
  404acb:	e8 30 d7 ff ff       	callq  402200 <_Unwind_Resume@plt>
  404ad0:	48 83 c4 18          	add    $0x18,%rsp
  404ad4:	5b                   	pop    %rbx
  404ad5:	5d                   	pop    %rbp
  404ad6:	c3                   	retq   
  404ad7:	90                   	nop

0000000000404ad8 <_ZNSt12_Vector_baseIiSaIiEE19_M_get_Tp_allocatorEv>:
  404ad8:	55                   	push   %rbp
  404ad9:	48 89 e5             	mov    %rsp,%rbp
  404adc:	48 89 7d f8          	mov    %rdi,-0x8(%rbp)
  404ae0:	48 8b 45 f8          	mov    -0x8(%rbp),%rax
  404ae4:	5d                   	pop    %rbp
  404ae5:	c3                   	retq   

0000000000404ae6 <_ZSt8_DestroyIPiiEvT_S1_RSaIT0_E>:
  404ae6:	55                   	push   %rbp
  404ae7:	48 89 e5             	mov    %rsp,%rbp
  404aea:	48 83 ec 20          	sub    $0x20,%rsp
  404aee:	48 89 7d f8          	mov    %rdi,-0x8(%rbp)
  404af2:	48 89 75 f0          	mov    %rsi,-0x10(%rbp)
  404af6:	48 89 55 e8          	mov    %rdx,-0x18(%rbp)
  404afa:	48 8b 55 f0          	mov    -0x10(%rbp),%rdx
  404afe:	48 8b 45 f8          	mov    -0x8(%rbp),%rax
  404b02:	48 89 d6             	mov    %rdx,%rsi
  404b05:	48 89 c7             	mov    %rax,%rdi
  404b08:	e8 01 0d 00 00       	callq  40580e <_ZSt8_DestroyIPiEvT_S1_>
  404b0d:	c9                   	leaveq 
  404b0e:	c3                   	retq   
  404b0f:	90                   	nop

0000000000404b10 <_ZNSt3mapISsiSt4lessISsESaISt4pairIKSsiEEE11lower_boundERS3_>:
  404b10:	55                   	push   %rbp
  404b11:	48 89 e5             	mov    %rsp,%rbp
  404b14:	48 83 ec 10          	sub    $0x10,%rsp
  404b18:	48 89 7d f8          	mov    %rdi,-0x8(%rbp)
  404b1c:	48 89 75 f0          	mov    %rsi,-0x10(%rbp)
  404b20:	48 8b 45 f8          	mov    -0x8(%rbp),%rax
  404b24:	48 8b 55 f0          	mov    -0x10(%rbp),%rdx
  404b28:	48 89 d6             	mov    %rdx,%rsi
  404b2b:	48 89 c7             	mov    %rax,%rdi
  404b2e:	e8 01 0d 00 00       	callq  405834 <_ZNSt8_Rb_treeISsSt4pairIKSsiESt10_Select1stIS2_ESt4lessISsESaIS2_EE11lower_boundERS1_>
  404b33:	c9                   	leaveq 
  404b34:	c3                   	retq   
  404b35:	90                   	nop

0000000000404b36 <_ZNKSt3mapISsiSt4lessISsESaISt4pairIKSsiEEE8key_compEv>:
  404b36:	55                   	push   %rbp
  404b37:	48 89 e5             	mov    %rsp,%rbp
  404b3a:	53                   	push   %rbx
  404b3b:	48 83 ec 18          	sub    $0x18,%rsp
  404b3f:	48 89 7d e8          	mov    %rdi,-0x18(%rbp)
  404b43:	48 8b 45 e8          	mov    -0x18(%rbp),%rax
  404b47:	48 89 c7             	mov    %rax,%rdi
  404b4a:	e8 31 0d 00 00       	callq  405880 <_ZNKSt8_Rb_treeISsSt4pairIKSsiESt10_Select1stIS2_ESt4lessISsESaIS2_EE8key_compEv>
  404b4f:	89 d8                	mov    %ebx,%eax
  404b51:	48 83 c4 18          	add    $0x18,%rsp
  404b55:	5b                   	pop    %rbx
  404b56:	5d                   	pop    %rbp
  404b57:	c3                   	retq   

0000000000404b58 <_ZNKSt17_Rb_tree_iteratorISt4pairIKSsiEEdeEv>:
  404b58:	55                   	push   %rbp
  404b59:	48 89 e5             	mov    %rsp,%rbp
  404b5c:	48 83 ec 10          	sub    $0x10,%rsp
  404b60:	48 89 7d f8          	mov    %rdi,-0x8(%rbp)
  404b64:	48 8b 45 f8          	mov    -0x8(%rbp),%rax
  404b68:	48 8b 00             	mov    (%rax),%rax
  404b6b:	48 89 c7             	mov    %rax,%rdi
  404b6e:	e8 17 0d 00 00       	callq  40588a <_ZNSt13_Rb_tree_nodeISt4pairIKSsiEE9_M_valptrEv>
  404b73:	c9                   	leaveq 
  404b74:	c3                   	retq   
  404b75:	90                   	nop

0000000000404b76 <_ZNKSt4lessISsEclERKSsS2_>:
  404b76:	55                   	push   %rbp
  404b77:	48 89 e5             	mov    %rsp,%rbp
  404b7a:	48 83 ec 20          	sub    $0x20,%rsp
  404b7e:	48 89 7d f8          	mov    %rdi,-0x8(%rbp)
  404b82:	48 89 75 f0          	mov    %rsi,-0x10(%rbp)
  404b86:	48 89 55 e8          	mov    %rdx,-0x18(%rbp)
  404b8a:	48 8b 55 e8          	mov    -0x18(%rbp),%rdx
  404b8e:	48 8b 45 f0          	mov    -0x10(%rbp),%rax
  404b92:	48 89 d6             	mov    %rdx,%rsi
  404b95:	48 89 c7             	mov    %rax,%rdi
  404b98:	e8 0b 0d 00 00       	callq  4058a8 <_ZStltIcSt11char_traitsIcESaIcEEbRKSbIT_T0_T1_ES8_>
  404b9d:	c9                   	leaveq 
  404b9e:	c3                   	retq   
  404b9f:	90                   	nop

0000000000404ba0 <_ZNKSt17_Rb_tree_iteratorISt4pairIKSsiEEeqERKS3_>:
  404ba0:	55                   	push   %rbp
  404ba1:	48 89 e5             	mov    %rsp,%rbp
  404ba4:	48 89 7d f8          	mov    %rdi,-0x8(%rbp)
  404ba8:	48 89 75 f0          	mov    %rsi,-0x10(%rbp)
  404bac:	48 8b 45 f8          	mov    -0x8(%rbp),%rax
  404bb0:	48 8b 10             	mov    (%rax),%rdx
  404bb3:	48 8b 45 f0          	mov    -0x10(%rbp),%rax
  404bb7:	48 8b 00             	mov    (%rax),%rax
  404bba:	48 39 c2             	cmp    %rax,%rdx
  404bbd:	0f 94 c0             	sete   %al
  404bc0:	5d                   	pop    %rbp
  404bc1:	c3                   	retq   

0000000000404bc2 <_ZNSt4pairIKSsiEC1ERS0_RKi>:
  404bc2:	55                   	push   %rbp
  404bc3:	48 89 e5             	mov    %rsp,%rbp
  404bc6:	48 83 ec 20          	sub    $0x20,%rsp
  404bca:	48 89 7d f8          	mov    %rdi,-0x8(%rbp)
  404bce:	48 89 75 f0          	mov    %rsi,-0x10(%rbp)
  404bd2:	48 89 55 e8          	mov    %rdx,-0x18(%rbp)
  404bd6:	48 8b 45 f8          	mov    -0x8(%rbp),%rax
  404bda:	48 8b 55 f0          	mov    -0x10(%rbp),%rdx
  404bde:	48 89 d6             	mov    %rdx,%rsi
  404be1:	48 89 c7             	mov    %rax,%rdi
  404be4:	e8 67 d3 ff ff       	callq  401f50 <_ZNSsC1ERKSs@plt>
  404be9:	48 8b 45 e8          	mov    -0x18(%rbp),%rax
  404bed:	8b 10                	mov    (%rax),%edx
  404bef:	48 8b 45 f8          	mov    -0x8(%rbp),%rax
  404bf3:	89 50 08             	mov    %edx,0x8(%rax)
  404bf6:	c9                   	leaveq 
  404bf7:	c3                   	retq   

0000000000404bf8 <_ZNSt3mapISsiSt4lessISsESaISt4pairIKSsiEEE6insertESt17_Rb_tree_iteratorIS4_ERKS4_>:
  404bf8:	55                   	push   %rbp
  404bf9:	48 89 e5             	mov    %rsp,%rbp
  404bfc:	48 83 ec 30          	sub    $0x30,%rsp
  404c00:	48 89 7d e8          	mov    %rdi,-0x18(%rbp)
  404c04:	48 89 75 e0          	mov    %rsi,-0x20(%rbp)
  404c08:	48 89 55 d8          	mov    %rdx,-0x28(%rbp)
  404c0c:	48 8d 55 e0          	lea    -0x20(%rbp),%rdx
  404c10:	48 8d 45 f0          	lea    -0x10(%rbp),%rax
  404c14:	48 89 d6             	mov    %rdx,%rsi
  404c17:	48 89 c7             	mov    %rax,%rdi
  404c1a:	e8 b1 0c 00 00       	callq  4058d0 <_ZNSt23_Rb_tree_const_iteratorISt4pairIKSsiEEC1ERKSt17_Rb_tree_iteratorIS2_E>
  404c1f:	48 8b 45 e8          	mov    -0x18(%rbp),%rax
  404c23:	48 8b 55 d8          	mov    -0x28(%rbp),%rdx
  404c27:	48 8b 4d f0          	mov    -0x10(%rbp),%rcx
  404c2b:	48 89 ce             	mov    %rcx,%rsi
  404c2e:	48 89 c7             	mov    %rax,%rdi
  404c31:	e8 b6 0c 00 00       	callq  4058ec <_ZNSt8_Rb_treeISsSt4pairIKSsiESt10_Select1stIS2_ESt4lessISsESaIS2_EE17_M_insert_unique_ESt23_Rb_tree_const_iteratorIS2_ERKS2_>
  404c36:	c9                   	leaveq 
  404c37:	c3                   	retq   

0000000000404c38 <_ZNSt3mapIiSsSt4lessIiESaISt4pairIKiSsEEE11lower_boundERS3_>:
  404c38:	55                   	push   %rbp
  404c39:	48 89 e5             	mov    %rsp,%rbp
  404c3c:	48 83 ec 10          	sub    $0x10,%rsp
  404c40:	48 89 7d f8          	mov    %rdi,-0x8(%rbp)
  404c44:	48 89 75 f0          	mov    %rsi,-0x10(%rbp)
  404c48:	48 8b 45 f8          	mov    -0x8(%rbp),%rax
  404c4c:	48 8b 55 f0          	mov    -0x10(%rbp),%rdx
  404c50:	48 89 d6             	mov    %rdx,%rsi
  404c53:	48 89 c7             	mov    %rax,%rdi
  404c56:	e8 13 0d 00 00       	callq  40596e <_ZNSt8_Rb_treeIiSt4pairIKiSsESt10_Select1stIS2_ESt4lessIiESaIS2_EE11lower_boundERS1_>
  404c5b:	c9                   	leaveq 
  404c5c:	c3                   	retq   
  404c5d:	90                   	nop

0000000000404c5e <_ZNKSt3mapIiSsSt4lessIiESaISt4pairIKiSsEEE8key_compEv>:
  404c5e:	55                   	push   %rbp
  404c5f:	48 89 e5             	mov    %rsp,%rbp
  404c62:	53                   	push   %rbx
  404c63:	48 83 ec 18          	sub    $0x18,%rsp
  404c67:	48 89 7d e8          	mov    %rdi,-0x18(%rbp)
  404c6b:	48 8b 45 e8          	mov    -0x18(%rbp),%rax
  404c6f:	48 89 c7             	mov    %rax,%rdi
  404c72:	e8 43 0d 00 00       	callq  4059ba <_ZNKSt8_Rb_treeIiSt4pairIKiSsESt10_Select1stIS2_ESt4lessIiESaIS2_EE8key_compEv>
  404c77:	89 d8                	mov    %ebx,%eax
  404c79:	48 83 c4 18          	add    $0x18,%rsp
  404c7d:	5b                   	pop    %rbx
  404c7e:	5d                   	pop    %rbp
  404c7f:	c3                   	retq   

0000000000404c80 <_ZNKSt17_Rb_tree_iteratorISt4pairIKiSsEEdeEv>:
  404c80:	55                   	push   %rbp
  404c81:	48 89 e5             	mov    %rsp,%rbp
  404c84:	48 83 ec 10          	sub    $0x10,%rsp
  404c88:	48 89 7d f8          	mov    %rdi,-0x8(%rbp)
  404c8c:	48 8b 45 f8          	mov    -0x8(%rbp),%rax
  404c90:	48 8b 00             	mov    (%rax),%rax
  404c93:	48 89 c7             	mov    %rax,%rdi
  404c96:	e8 29 0d 00 00       	callq  4059c4 <_ZNSt13_Rb_tree_nodeISt4pairIKiSsEE9_M_valptrEv>
  404c9b:	c9                   	leaveq 
  404c9c:	c3                   	retq   
  404c9d:	90                   	nop

0000000000404c9e <_ZNKSt4lessIiEclERKiS2_>:
  404c9e:	55                   	push   %rbp
  404c9f:	48 89 e5             	mov    %rsp,%rbp
  404ca2:	48 89 7d f8          	mov    %rdi,-0x8(%rbp)
  404ca6:	48 89 75 f0          	mov    %rsi,-0x10(%rbp)
  404caa:	48 89 55 e8          	mov    %rdx,-0x18(%rbp)
  404cae:	48 8b 45 f0          	mov    -0x10(%rbp),%rax
  404cb2:	8b 10                	mov    (%rax),%edx
  404cb4:	48 8b 45 e8          	mov    -0x18(%rbp),%rax
  404cb8:	8b 00                	mov    (%rax),%eax
  404cba:	39 c2                	cmp    %eax,%edx
  404cbc:	0f 9c c0             	setl   %al
  404cbf:	5d                   	pop    %rbp
  404cc0:	c3                   	retq   
  404cc1:	90                   	nop

0000000000404cc2 <_ZNSt3mapIiSsSt4lessIiESaISt4pairIKiSsEEE3endEv>:
  404cc2:	55                   	push   %rbp
  404cc3:	48 89 e5             	mov    %rsp,%rbp
  404cc6:	48 83 ec 10          	sub    $0x10,%rsp
  404cca:	48 89 7d f8          	mov    %rdi,-0x8(%rbp)
  404cce:	48 8b 45 f8          	mov    -0x8(%rbp),%rax
  404cd2:	48 89 c7             	mov    %rax,%rdi
  404cd5:	e8 08 0d 00 00       	callq  4059e2 <_ZNSt8_Rb_treeIiSt4pairIKiSsESt10_Select1stIS2_ESt4lessIiESaIS2_EE3endEv>
  404cda:	c9                   	leaveq 
  404cdb:	c3                   	retq   

0000000000404cdc <_ZNKSt17_Rb_tree_iteratorISt4pairIKiSsEEeqERKS3_>:
  404cdc:	55                   	push   %rbp
  404cdd:	48 89 e5             	mov    %rsp,%rbp
  404ce0:	48 89 7d f8          	mov    %rdi,-0x8(%rbp)
  404ce4:	48 89 75 f0          	mov    %rsi,-0x10(%rbp)
  404ce8:	48 8b 45 f8          	mov    -0x8(%rbp),%rax
  404cec:	48 8b 10             	mov    (%rax),%rdx
  404cef:	48 8b 45 f0          	mov    -0x10(%rbp),%rax
  404cf3:	48 8b 00             	mov    (%rax),%rax
  404cf6:	48 39 c2             	cmp    %rax,%rdx
  404cf9:	0f 94 c0             	sete   %al
  404cfc:	5d                   	pop    %rbp
  404cfd:	c3                   	retq   

0000000000404cfe <_ZNSt4pairIKiSsEC1ERS0_RKSs>:
  404cfe:	55                   	push   %rbp
  404cff:	48 89 e5             	mov    %rsp,%rbp
  404d02:	48 83 ec 20          	sub    $0x20,%rsp
  404d06:	48 89 7d f8          	mov    %rdi,-0x8(%rbp)
  404d0a:	48 89 75 f0          	mov    %rsi,-0x10(%rbp)
  404d0e:	48 89 55 e8          	mov    %rdx,-0x18(%rbp)
  404d12:	48 8b 45 f0          	mov    -0x10(%rbp),%rax
  404d16:	8b 10                	mov    (%rax),%edx
  404d18:	48 8b 45 f8          	mov    -0x8(%rbp),%rax
  404d1c:	89 10                	mov    %edx,(%rax)
  404d1e:	48 8b 45 f8          	mov    -0x8(%rbp),%rax
  404d22:	48 8d 50 08          	lea    0x8(%rax),%rdx
  404d26:	48 8b 45 e8          	mov    -0x18(%rbp),%rax
  404d2a:	48 89 c6             	mov    %rax,%rsi
  404d2d:	48 89 d7             	mov    %rdx,%rdi
  404d30:	e8 1b d2 ff ff       	callq  401f50 <_ZNSsC1ERKSs@plt>
  404d35:	c9                   	leaveq 
  404d36:	c3                   	retq   
  404d37:	90                   	nop

0000000000404d38 <_ZNSt3mapIiSsSt4lessIiESaISt4pairIKiSsEEE6insertESt17_Rb_tree_iteratorIS4_ERKS4_>:
  404d38:	55                   	push   %rbp
  404d39:	48 89 e5             	mov    %rsp,%rbp
  404d3c:	48 83 ec 30          	sub    $0x30,%rsp
  404d40:	48 89 7d e8          	mov    %rdi,-0x18(%rbp)
  404d44:	48 89 75 e0          	mov    %rsi,-0x20(%rbp)
  404d48:	48 89 55 d8          	mov    %rdx,-0x28(%rbp)
  404d4c:	48 8d 55 e0          	lea    -0x20(%rbp),%rdx
  404d50:	48 8d 45 f0          	lea    -0x10(%rbp),%rax
  404d54:	48 89 d6             	mov    %rdx,%rsi
  404d57:	48 89 c7             	mov    %rax,%rdi
  404d5a:	e8 ad 0c 00 00       	callq  405a0c <_ZNSt23_Rb_tree_const_iteratorISt4pairIKiSsEEC1ERKSt17_Rb_tree_iteratorIS2_E>
  404d5f:	48 8b 45 e8          	mov    -0x18(%rbp),%rax
  404d63:	48 8b 55 d8          	mov    -0x28(%rbp),%rdx
  404d67:	48 8b 4d f0          	mov    -0x10(%rbp),%rcx
  404d6b:	48 89 ce             	mov    %rcx,%rsi
  404d6e:	48 89 c7             	mov    %rax,%rdi
  404d71:	e8 b2 0c 00 00       	callq  405a28 <_ZNSt8_Rb_treeIiSt4pairIKiSsESt10_Select1stIS2_ESt4lessIiESaIS2_EE17_M_insert_unique_ESt23_Rb_tree_const_iteratorIS2_ERKS2_>
  404d76:	c9                   	leaveq 
  404d77:	c3                   	retq   

0000000000404d78 <_ZSteqIcSt11char_traitsIcESaIcEEbRKSbIT_T0_T1_EPKS3_>:
  404d78:	55                   	push   %rbp
  404d79:	48 89 e5             	mov    %rsp,%rbp
  404d7c:	48 83 ec 10          	sub    $0x10,%rsp
  404d80:	48 89 7d f8          	mov    %rdi,-0x8(%rbp)
  404d84:	48 89 75 f0          	mov    %rsi,-0x10(%rbp)
  404d88:	48 8b 55 f0          	mov    -0x10(%rbp),%rdx
  404d8c:	48 8b 45 f8          	mov    -0x8(%rbp),%rax
  404d90:	48 89 d6             	mov    %rdx,%rsi
  404d93:	48 89 c7             	mov    %rax,%rdi
  404d96:	e8 45 d2 ff ff       	callq  401fe0 <_ZNKSs7compareEPKc@plt>
  404d9b:	85 c0                	test   %eax,%eax
  404d9d:	0f 94 c0             	sete   %al
  404da0:	c9                   	leaveq 
  404da1:	c3                   	retq   

0000000000404da2 <_ZNKSt8_Rb_treeISsSt4pairIKSsiESt10_Select1stIS2_ESt4lessISsESaIS2_EE4sizeEv>:
  404da2:	55                   	push   %rbp
  404da3:	48 89 e5             	mov    %rsp,%rbp
  404da6:	48 89 7d f8          	mov    %rdi,-0x8(%rbp)
  404daa:	48 8b 45 f8          	mov    -0x8(%rbp),%rax
  404dae:	48 8b 40 28          	mov    0x28(%rax),%rax
  404db2:	5d                   	pop    %rbp
  404db3:	c3                   	retq   

0000000000404db4 <_ZNSt8_Rb_treeISsSt4pairIKSsiESt10_Select1stIS2_ESt4lessISsESaIS2_EEC1Ev>:
  404db4:	55                   	push   %rbp
  404db5:	48 89 e5             	mov    %rsp,%rbp
  404db8:	48 83 ec 10          	sub    $0x10,%rsp
  404dbc:	48 89 7d f8          	mov    %rdi,-0x8(%rbp)
  404dc0:	48 8b 45 f8          	mov    -0x8(%rbp),%rax
  404dc4:	48 89 c7             	mov    %rax,%rdi
  404dc7:	e8 de 0c 00 00       	callq  405aaa <_ZNSt8_Rb_treeISsSt4pairIKSsiESt10_Select1stIS2_ESt4lessISsESaIS2_EE13_Rb_tree_implIS6_Lb0EEC1Ev>
  404dcc:	c9                   	leaveq 
  404dcd:	c3                   	retq   

0000000000404dce <_ZNSt8_Rb_treeIiSt4pairIKiSsESt10_Select1stIS2_ESt4lessIiESaIS2_EEC1Ev>:
  404dce:	55                   	push   %rbp
  404dcf:	48 89 e5             	mov    %rsp,%rbp
  404dd2:	48 83 ec 10          	sub    $0x10,%rsp
  404dd6:	48 89 7d f8          	mov    %rdi,-0x8(%rbp)
  404dda:	48 8b 45 f8          	mov    -0x8(%rbp),%rax
  404dde:	48 89 c7             	mov    %rax,%rdi
  404de1:	e8 26 0d 00 00       	callq  405b0c <_ZNSt8_Rb_treeIiSt4pairIKiSsESt10_Select1stIS2_ESt4lessIiESaIS2_EE13_Rb_tree_implIS6_Lb0EEC1Ev>
  404de6:	c9                   	leaveq 
  404de7:	c3                   	retq   

0000000000404de8 <_ZNSt12_Vector_baseIiSaIiEEC1Ev>:
  404de8:	55                   	push   %rbp
  404de9:	48 89 e5             	mov    %rsp,%rbp
  404dec:	48 83 ec 10          	sub    $0x10,%rsp
  404df0:	48 89 7d f8          	mov    %rdi,-0x8(%rbp)
  404df4:	48 8b 45 f8          	mov    -0x8(%rbp),%rax
  404df8:	48 89 c7             	mov    %rax,%rdi
  404dfb:	e8 6e 0d 00 00       	callq  405b6e <_ZNSt12_Vector_baseIiSaIiEE12_Vector_implC1Ev>
  404e00:	c9                   	leaveq 
  404e01:	c3                   	retq   

0000000000404e02 <_ZN9__gnu_cxx14__alloc_traitsISaIiEE9constructIiEEvRS1_PiRKT_>:
  404e02:	55                   	push   %rbp
  404e03:	48 89 e5             	mov    %rsp,%rbp
  404e06:	48 83 ec 20          	sub    $0x20,%rsp
  404e0a:	48 89 7d f8          	mov    %rdi,-0x8(%rbp)
  404e0e:	48 89 75 f0          	mov    %rsi,-0x10(%rbp)
  404e12:	48 89 55 e8          	mov    %rdx,-0x18(%rbp)
  404e16:	48 8b 55 e8          	mov    -0x18(%rbp),%rdx
  404e1a:	48 8b 4d f0          	mov    -0x10(%rbp),%rcx
  404e1e:	48 8b 45 f8          	mov    -0x8(%rbp),%rax
  404e22:	48 89 ce             	mov    %rcx,%rsi
  404e25:	48 89 c7             	mov    %rax,%rdi
  404e28:	e8 7f 0d 00 00       	callq  405bac <_ZN9__gnu_cxx13new_allocatorIiE9constructEPiRKi>
  404e2d:	c9                   	leaveq 
  404e2e:	c3                   	retq   
  404e2f:	90                   	nop

0000000000404e30 <_ZNSt6vectorIiSaIiEE13_M_insert_auxEN9__gnu_cxx17__normal_iteratorIPiS1_EERKi>:
  404e30:	55                   	push   %rbp
  404e31:	48 89 e5             	mov    %rsp,%rbp
  404e34:	41 54                	push   %r12
  404e36:	53                   	push   %rbx
  404e37:	48 83 ec 50          	sub    $0x50,%rsp
  404e3b:	48 89 7d b8          	mov    %rdi,-0x48(%rbp)
  404e3f:	48 89 75 b0          	mov    %rsi,-0x50(%rbp)
  404e43:	48 89 55 a8          	mov    %rdx,-0x58(%rbp)
  404e47:	48 8b 45 b8          	mov    -0x48(%rbp),%rax
  404e4b:	48 8b 50 08          	mov    0x8(%rax),%rdx
  404e4f:	48 8b 45 b8          	mov    -0x48(%rbp),%rax
  404e53:	48 8b 40 10          	mov    0x10(%rax),%rax
  404e57:	48 39 c2             	cmp    %rax,%rdx
  404e5a:	0f 84 8e 00 00 00    	je     404eee <_ZNSt6vectorIiSaIiEE13_M_insert_auxEN9__gnu_cxx17__normal_iteratorIPiS1_EERKi+0xbe>
  404e60:	48 8b 45 b8          	mov    -0x48(%rbp),%rax
  404e64:	48 8b 40 08          	mov    0x8(%rax),%rax
  404e68:	48 8d 50 fc          	lea    -0x4(%rax),%rdx
  404e6c:	48 8b 45 b8          	mov    -0x48(%rbp),%rax
  404e70:	48 8b 48 08          	mov    0x8(%rax),%rcx
  404e74:	48 8b 45 b8          	mov    -0x48(%rbp),%rax
  404e78:	48 89 ce             	mov    %rcx,%rsi
  404e7b:	48 89 c7             	mov    %rax,%rdi
  404e7e:	e8 7f ff ff ff       	callq  404e02 <_ZN9__gnu_cxx14__alloc_traitsISaIiEE9constructIiEEvRS1_PiRKT_>
  404e83:	48 8b 45 b8          	mov    -0x48(%rbp),%rax
  404e87:	48 8b 40 08          	mov    0x8(%rax),%rax
  404e8b:	48 8d 50 04          	lea    0x4(%rax),%rdx
  404e8f:	48 8b 45 b8          	mov    -0x48(%rbp),%rax
  404e93:	48 89 50 08          	mov    %rdx,0x8(%rax)
  404e97:	48 8b 45 a8          	mov    -0x58(%rbp),%rax
  404e9b:	8b 00                	mov    (%rax),%eax
  404e9d:	89 45 e4             	mov    %eax,-0x1c(%rbp)
  404ea0:	48 8b 45 b8          	mov    -0x48(%rbp),%rax
  404ea4:	48 8b 40 08          	mov    0x8(%rax),%rax
  404ea8:	4c 8d 60 fc          	lea    -0x4(%rax),%r12
  404eac:	48 8b 45 b8          	mov    -0x48(%rbp),%rax
  404eb0:	48 8b 40 08          	mov    0x8(%rax),%rax
  404eb4:	48 8d 58 f8          	lea    -0x8(%rax),%rbx
  404eb8:	48 8d 45 b0          	lea    -0x50(%rbp),%rax
  404ebc:	48 89 c7             	mov    %rax,%rdi
  404ebf:	e8 1c 0d 00 00       	callq  405be0 <_ZNK9__gnu_cxx17__normal_iteratorIPiSt6vectorIiSaIiEEE4baseEv>
  404ec4:	48 8b 00             	mov    (%rax),%rax
  404ec7:	4c 89 e2             	mov    %r12,%rdx
  404eca:	48 89 de             	mov    %rbx,%rsi
  404ecd:	48 89 c7             	mov    %rax,%rdi
  404ed0:	e8 19 0d 00 00       	callq  405bee <_ZSt13copy_backwardIPiS0_ET0_T_S2_S1_>
  404ed5:	48 8d 45 b0          	lea    -0x50(%rbp),%rax
  404ed9:	48 89 c7             	mov    %rax,%rdi
  404edc:	e8 59 0d 00 00       	callq  405c3a <_ZNK9__gnu_cxx17__normal_iteratorIPiSt6vectorIiSaIiEEEdeEv>
  404ee1:	48 89 c2             	mov    %rax,%rdx
  404ee4:	8b 45 e4             	mov    -0x1c(%rbp),%eax
  404ee7:	89 02                	mov    %eax,(%rdx)
  404ee9:	e9 21 02 00 00       	jmpq   40510f <_ZNSt6vectorIiSaIiEE13_M_insert_auxEN9__gnu_cxx17__normal_iteratorIPiS1_EERKi+0x2df>
  404eee:	48 8b 45 b8          	mov    -0x48(%rbp),%rax
  404ef2:	ba fe 1a 41 00       	mov    $0x411afe,%edx
  404ef7:	be 01 00 00 00       	mov    $0x1,%esi
  404efc:	48 89 c7             	mov    %rax,%rdi
  404eff:	e8 48 0d 00 00       	callq  405c4c <_ZNKSt6vectorIiSaIiEE12_M_check_lenEmPKc>
  404f04:	48 89 45 d8          	mov    %rax,-0x28(%rbp)
  404f08:	48 8b 45 b8          	mov    -0x48(%rbp),%rax
  404f0c:	48 89 c7             	mov    %rax,%rdi
  404f0f:	e8 64 06 00 00       	callq  405578 <_ZNSt6vectorIiSaIiEE5beginEv>
  404f14:	48 89 45 c0          	mov    %rax,-0x40(%rbp)
  404f18:	48 8d 55 c0          	lea    -0x40(%rbp),%rdx
  404f1c:	48 8d 45 b0          	lea    -0x50(%rbp),%rax
  404f20:	48 89 d6             	mov    %rdx,%rsi
  404f23:	48 89 c7             	mov    %rax,%rdi
  404f26:	e8 ea 0d 00 00       	callq  405d15 <_ZN9__gnu_cxxmiIPiSt6vectorIiSaIiEEEENS_17__normal_iteratorIT_T0_E15difference_typeERKS8_SB_>
  404f2b:	48 89 45 d0          	mov    %rax,-0x30(%rbp)
  404f2f:	48 8b 45 b8          	mov    -0x48(%rbp),%rax
  404f33:	48 8b 55 d8          	mov    -0x28(%rbp),%rdx
  404f37:	48 89 d6             	mov    %rdx,%rsi
  404f3a:	48 89 c7             	mov    %rax,%rdi
  404f3d:	e8 16 0e 00 00       	callq  405d58 <_ZNSt12_Vector_baseIiSaIiEE11_M_allocateEm>
  404f42:	48 89 45 c8          	mov    %rax,-0x38(%rbp)
  404f46:	48 8b 45 c8          	mov    -0x38(%rbp),%rax
  404f4a:	48 89 45 e8          	mov    %rax,-0x18(%rbp)
  404f4e:	48 8b 45 d0          	mov    -0x30(%rbp),%rax
  404f52:	48 8d 14 85 00 00 00 	lea    0x0(,%rax,4),%rdx
  404f59:	00 
  404f5a:	48 8b 45 c8          	mov    -0x38(%rbp),%rax
  404f5e:	48 8d 0c 02          	lea    (%rdx,%rax,1),%rcx
  404f62:	48 8b 45 b8          	mov    -0x48(%rbp),%rax
  404f66:	48 8b 55 a8          	mov    -0x58(%rbp),%rdx
  404f6a:	48 89 ce             	mov    %rcx,%rsi
  404f6d:	48 89 c7             	mov    %rax,%rdi
  404f70:	e8 8d fe ff ff       	callq  404e02 <_ZN9__gnu_cxx14__alloc_traitsISaIiEE9constructIiEEvRS1_PiRKT_>
  404f75:	48 c7 45 e8 00 00 00 	movq   $0x0,-0x18(%rbp)
  404f7c:	00 
  404f7d:	48 8b 45 b8          	mov    -0x48(%rbp),%rax
  404f81:	48 89 c7             	mov    %rax,%rdi
  404f84:	e8 4f fb ff ff       	callq  404ad8 <_ZNSt12_Vector_baseIiSaIiEE19_M_get_Tp_allocatorEv>
  404f89:	48 89 c3             	mov    %rax,%rbx
  404f8c:	48 8d 45 b0          	lea    -0x50(%rbp),%rax
  404f90:	48 89 c7             	mov    %rax,%rdi
  404f93:	e8 48 0c 00 00       	callq  405be0 <_ZNK9__gnu_cxx17__normal_iteratorIPiSt6vectorIiSaIiEEE4baseEv>
  404f98:	48 8b 30             	mov    (%rax),%rsi
  404f9b:	48 8b 45 b8          	mov    -0x48(%rbp),%rax
  404f9f:	48 8b 00             	mov    (%rax),%rax
  404fa2:	48 8b 55 c8          	mov    -0x38(%rbp),%rdx
  404fa6:	48 89 d9             	mov    %rbx,%rcx
  404fa9:	48 89 c7             	mov    %rax,%rdi
  404fac:	e8 da 0d 00 00       	callq  405d8b <_ZSt34__uninitialized_move_if_noexcept_aIPiS0_SaIiEET0_T_S3_S2_RT1_>
  404fb1:	48 89 45 e8          	mov    %rax,-0x18(%rbp)
  404fb5:	48 83 45 e8 04       	addq   $0x4,-0x18(%rbp)
  404fba:	48 8b 45 b8          	mov    -0x48(%rbp),%rax
  404fbe:	48 89 c7             	mov    %rax,%rdi
  404fc1:	e8 12 fb ff ff       	callq  404ad8 <_ZNSt12_Vector_baseIiSaIiEE19_M_get_Tp_allocatorEv>
  404fc6:	49 89 c4             	mov    %rax,%r12
  404fc9:	48 8b 45 b8          	mov    -0x48(%rbp),%rax
  404fcd:	48 8b 58 08          	mov    0x8(%rax),%rbx
  404fd1:	48 8d 45 b0          	lea    -0x50(%rbp),%rax
  404fd5:	48 89 c7             	mov    %rax,%rdi
  404fd8:	e8 03 0c 00 00       	callq  405be0 <_ZNK9__gnu_cxx17__normal_iteratorIPiSt6vectorIiSaIiEEE4baseEv>
  404fdd:	48 8b 00             	mov    (%rax),%rax
  404fe0:	48 8b 55 e8          	mov    -0x18(%rbp),%rdx
  404fe4:	4c 89 e1             	mov    %r12,%rcx
  404fe7:	48 89 de             	mov    %rbx,%rsi
  404fea:	48 89 c7             	mov    %rax,%rdi
  404fed:	e8 99 0d 00 00       	callq  405d8b <_ZSt34__uninitialized_move_if_noexcept_aIPiS0_SaIiEET0_T_S3_S2_RT1_>
  404ff2:	48 89 45 e8          	mov    %rax,-0x18(%rbp)
  404ff6:	48 8b 45 b8          	mov    -0x48(%rbp),%rax
  404ffa:	48 89 c7             	mov    %rax,%rdi
  404ffd:	e8 d6 fa ff ff       	callq  404ad8 <_ZNSt12_Vector_baseIiSaIiEE19_M_get_Tp_allocatorEv>
  405002:	48 89 c2             	mov    %rax,%rdx
  405005:	48 8b 45 b8          	mov    -0x48(%rbp),%rax
  405009:	48 8b 48 08          	mov    0x8(%rax),%rcx
  40500d:	48 8b 45 b8          	mov    -0x48(%rbp),%rax
  405011:	48 8b 00             	mov    (%rax),%rax
  405014:	48 89 ce             	mov    %rcx,%rsi
  405017:	48 89 c7             	mov    %rax,%rdi
  40501a:	e8 c7 fa ff ff       	callq  404ae6 <_ZSt8_DestroyIPiiEvT_S1_RSaIT0_E>
  40501f:	48 8b 45 b8          	mov    -0x48(%rbp),%rax
  405023:	48 8b 40 10          	mov    0x10(%rax),%rax
  405027:	48 89 c2             	mov    %rax,%rdx
  40502a:	48 8b 45 b8          	mov    -0x48(%rbp),%rax
  40502e:	48 8b 00             	mov    (%rax),%rax
  405031:	48 29 c2             	sub    %rax,%rdx
  405034:	48 89 d0             	mov    %rdx,%rax
  405037:	48 c1 f8 02          	sar    $0x2,%rax
  40503b:	48 89 c2             	mov    %rax,%rdx
  40503e:	48 8b 45 b8          	mov    -0x48(%rbp),%rax
  405042:	48 8b 08             	mov    (%rax),%rcx
  405045:	48 8b 45 b8          	mov    -0x48(%rbp),%rax
  405049:	48 89 ce             	mov    %rcx,%rsi
  40504c:	48 89 c7             	mov    %rax,%rdi
  40504f:	e8 f0 04 00 00       	callq  405544 <_ZNSt12_Vector_baseIiSaIiEE13_M_deallocateEPim>
  405054:	48 8b 45 b8          	mov    -0x48(%rbp),%rax
  405058:	48 8b 55 c8          	mov    -0x38(%rbp),%rdx
  40505c:	48 89 10             	mov    %rdx,(%rax)
  40505f:	48 8b 45 b8          	mov    -0x48(%rbp),%rax
  405063:	48 8b 55 e8          	mov    -0x18(%rbp),%rdx
  405067:	48 89 50 08          	mov    %rdx,0x8(%rax)
  40506b:	48 8b 45 d8          	mov    -0x28(%rbp),%rax
  40506f:	48 8d 14 85 00 00 00 	lea    0x0(,%rax,4),%rdx
  405076:	00 
  405077:	48 8b 45 c8          	mov    -0x38(%rbp),%rax
  40507b:	48 01 c2             	add    %rax,%rdx
  40507e:	48 8b 45 b8          	mov    -0x48(%rbp),%rax
  405082:	48 89 50 10          	mov    %rdx,0x10(%rax)
  405086:	e9 84 00 00 00       	jmpq   40510f <_ZNSt6vectorIiSaIiEE13_M_insert_auxEN9__gnu_cxx17__normal_iteratorIPiS1_EERKi+0x2df>
  40508b:	48 89 c3             	mov    %rax,%rbx
  40508e:	e8 cd d0 ff ff       	callq  402160 <__cxa_end_catch@plt>
  405093:	48 89 d8             	mov    %rbx,%rax
  405096:	48 89 c7             	mov    %rax,%rdi
  405099:	e8 62 d1 ff ff       	callq  402200 <_Unwind_Resume@plt>
  40509e:	48 89 c7             	mov    %rax,%rdi
  4050a1:	e8 fa d0 ff ff       	callq  4021a0 <__cxa_begin_catch@plt>
  4050a6:	48 83 7d e8 00       	cmpq   $0x0,-0x18(%rbp)
  4050ab:	75 24                	jne    4050d1 <_ZNSt6vectorIiSaIiEE13_M_insert_auxEN9__gnu_cxx17__normal_iteratorIPiS1_EERKi+0x2a1>
  4050ad:	48 8b 45 d0          	mov    -0x30(%rbp),%rax
  4050b1:	48 8d 14 85 00 00 00 	lea    0x0(,%rax,4),%rdx
  4050b8:	00 
  4050b9:	48 8b 45 c8          	mov    -0x38(%rbp),%rax
  4050bd:	48 01 c2             	add    %rax,%rdx
  4050c0:	48 8b 45 b8          	mov    -0x48(%rbp),%rax
  4050c4:	48 89 d6             	mov    %rdx,%rsi
  4050c7:	48 89 c7             	mov    %rax,%rdi
  4050ca:	e8 ee 0c 00 00       	callq  405dbd <_ZN9__gnu_cxx14__alloc_traitsISaIiEE7destroyERS1_Pi>
  4050cf:	eb 22                	jmp    4050f3 <_ZNSt6vectorIiSaIiEE13_M_insert_auxEN9__gnu_cxx17__normal_iteratorIPiS1_EERKi+0x2c3>
  4050d1:	48 8b 45 b8          	mov    -0x48(%rbp),%rax
  4050d5:	48 89 c7             	mov    %rax,%rdi
  4050d8:	e8 fb f9 ff ff       	callq  404ad8 <_ZNSt12_Vector_baseIiSaIiEE19_M_get_Tp_allocatorEv>
  4050dd:	48 89 c2             	mov    %rax,%rdx
  4050e0:	48 8b 4d e8          	mov    -0x18(%rbp),%rcx
  4050e4:	48 8b 45 c8          	mov    -0x38(%rbp),%rax
  4050e8:	48 89 ce             	mov    %rcx,%rsi
  4050eb:	48 89 c7             	mov    %rax,%rdi
  4050ee:	e8 f3 f9 ff ff       	callq  404ae6 <_ZSt8_DestroyIPiiEvT_S1_RSaIT0_E>
  4050f3:	48 8b 45 b8          	mov    -0x48(%rbp),%rax
  4050f7:	48 8b 55 d8          	mov    -0x28(%rbp),%rdx
  4050fb:	48 8b 4d c8          	mov    -0x38(%rbp),%rcx
  4050ff:	48 89 ce             	mov    %rcx,%rsi
  405102:	48 89 c7             	mov    %rax,%rdi
  405105:	e8 3a 04 00 00       	callq  405544 <_ZNSt12_Vector_baseIiSaIiEE13_M_deallocateEPim>
  40510a:	e8 c1 cd ff ff       	callq  401ed0 <__cxa_rethrow@plt>
  40510f:	48 83 c4 50          	add    $0x50,%rsp
  405113:	5b                   	pop    %rbx
  405114:	41 5c                	pop    %r12
  405116:	5d                   	pop    %rbp
  405117:	c3                   	retq   

0000000000405118 <_ZNSt6vectorIiSaIiEE3endEv>:
  405118:	55                   	push   %rbp
  405119:	48 89 e5             	mov    %rsp,%rbp
  40511c:	48 83 ec 20          	sub    $0x20,%rsp
  405120:	48 89 7d e8          	mov    %rdi,-0x18(%rbp)
  405124:	48 8b 45 e8          	mov    -0x18(%rbp),%rax
  405128:	48 8d 50 08          	lea    0x8(%rax),%rdx
  40512c:	48 8d 45 f0          	lea    -0x10(%rbp),%rax
  405130:	48 89 d6             	mov    %rdx,%rsi
  405133:	48 89 c7             	mov    %rax,%rdi
  405136:	e8 a7 0c 00 00       	callq  405de2 <_ZN9__gnu_cxx17__normal_iteratorIPiSt6vectorIiSaIiEEEC1ERKS1_>
  40513b:	48 8b 45 f0          	mov    -0x10(%rbp),%rax
  40513f:	c9                   	leaveq 
  405140:	c3                   	retq   
  405141:	90                   	nop

0000000000405142 <_ZNSt8_Rb_treeISsSt4pairIKSsiESt10_Select1stIS2_ESt4lessISsESaIS2_EE4findERS1_>:
  405142:	55                   	push   %rbp
  405143:	48 89 e5             	mov    %rsp,%rbp
  405146:	53                   	push   %rbx
  405147:	48 83 ec 38          	sub    $0x38,%rsp
  40514b:	48 89 7d c8          	mov    %rdi,-0x38(%rbp)
  40514f:	48 89 75 c0          	mov    %rsi,-0x40(%rbp)
  405153:	48 8b 45 c8          	mov    -0x38(%rbp),%rax
  405157:	48 89 c7             	mov    %rax,%rdi
  40515a:	e8 9f 0c 00 00       	callq  405dfe <_ZNSt8_Rb_treeISsSt4pairIKSsiESt10_Select1stIS2_ESt4lessISsESaIS2_EE6_M_endEv>
  40515f:	48 89 c3             	mov    %rax,%rbx
  405162:	48 8b 45 c8          	mov    -0x38(%rbp),%rax
  405166:	48 89 c7             	mov    %rax,%rdi
  405169:	e8 3c f8 ff ff       	callq  4049aa <_ZNSt8_Rb_treeISsSt4pairIKSsiESt10_Select1stIS2_ESt4lessISsESaIS2_EE8_M_beginEv>
  40516e:	48 89 c6             	mov    %rax,%rsi
  405171:	48 8b 55 c0          	mov    -0x40(%rbp),%rdx
  405175:	48 8b 45 c8          	mov    -0x38(%rbp),%rax
  405179:	48 89 d1             	mov    %rdx,%rcx
  40517c:	48 89 da             	mov    %rbx,%rdx
  40517f:	48 89 c7             	mov    %rax,%rdi
  405182:	e8 89 0c 00 00       	callq  405e10 <_ZNSt8_Rb_treeISsSt4pairIKSsiESt10_Select1stIS2_ESt4lessISsESaIS2_EE14_M_lower_boundEPSt13_Rb_tree_nodeIS2_ESB_RS1_>
  405187:	48 89 45 d0          	mov    %rax,-0x30(%rbp)
  40518b:	bb 00 00 00 00       	mov    $0x0,%ebx
  405190:	48 8b 45 c8          	mov    -0x38(%rbp),%rax
  405194:	48 89 c7             	mov    %rax,%rdi
  405197:	e8 6e 00 00 00       	callq  40520a <_ZNSt8_Rb_treeISsSt4pairIKSsiESt10_Select1stIS2_ESt4lessISsESaIS2_EE3endEv>
  40519c:	48 89 45 e0          	mov    %rax,-0x20(%rbp)
  4051a0:	bb 01 00 00 00       	mov    $0x1,%ebx
  4051a5:	48 8d 55 e0          	lea    -0x20(%rbp),%rdx
  4051a9:	48 8d 45 d0          	lea    -0x30(%rbp),%rax
  4051ad:	48 89 d6             	mov    %rdx,%rsi
  4051b0:	48 89 c7             	mov    %rax,%rdi
  4051b3:	e8 e8 f9 ff ff       	callq  404ba0 <_ZNKSt17_Rb_tree_iteratorISt4pairIKSsiEEeqERKS3_>
  4051b8:	84 c0                	test   %al,%al
  4051ba:	75 26                	jne    4051e2 <_ZNSt8_Rb_treeISsSt4pairIKSsiESt10_Select1stIS2_ESt4lessISsESaIS2_EE4findERS1_+0xa0>
  4051bc:	48 8b 45 d0          	mov    -0x30(%rbp),%rax
  4051c0:	48 89 c7             	mov    %rax,%rdi
  4051c3:	e8 d5 0c 00 00       	callq  405e9d <_ZNSt8_Rb_treeISsSt4pairIKSsiESt10_Select1stIS2_ESt4lessISsESaIS2_EE6_S_keyEPKSt18_Rb_tree_node_base>
  4051c8:	48 89 c2             	mov    %rax,%rdx
  4051cb:	48 8b 45 c8          	mov    -0x38(%rbp),%rax
  4051cf:	48 8b 4d c0          	mov    -0x40(%rbp),%rcx
  4051d3:	48 89 ce             	mov    %rcx,%rsi
  4051d6:	48 89 c7             	mov    %rax,%rdi
  4051d9:	e8 98 f9 ff ff       	callq  404b76 <_ZNKSt4lessISsEclERKSsS2_>
  4051de:	84 c0                	test   %al,%al
  4051e0:	74 0e                	je     4051f0 <_ZNSt8_Rb_treeISsSt4pairIKSsiESt10_Select1stIS2_ESt4lessISsESaIS2_EE4findERS1_+0xae>
  4051e2:	48 8b 45 c8          	mov    -0x38(%rbp),%rax
  4051e6:	48 89 c7             	mov    %rax,%rdi
  4051e9:	e8 1c 00 00 00       	callq  40520a <_ZNSt8_Rb_treeISsSt4pairIKSsiESt10_Select1stIS2_ESt4lessISsESaIS2_EE3endEv>
  4051ee:	eb 04                	jmp    4051f4 <_ZNSt8_Rb_treeISsSt4pairIKSsiESt10_Select1stIS2_ESt4lessISsESaIS2_EE4findERS1_+0xb2>
  4051f0:	48 8b 45 d0          	mov    -0x30(%rbp),%rax
  4051f4:	84 db                	test   %bl,%bl
  4051f6:	eb 0b                	jmp    405203 <_ZNSt8_Rb_treeISsSt4pairIKSsiESt10_Select1stIS2_ESt4lessISsESaIS2_EE4findERS1_+0xc1>
  4051f8:	84 db                	test   %bl,%bl
  4051fa:	90                   	nop
  4051fb:	48 89 c7             	mov    %rax,%rdi
  4051fe:	e8 fd cf ff ff       	callq  402200 <_Unwind_Resume@plt>
  405203:	48 83 c4 38          	add    $0x38,%rsp
  405207:	5b                   	pop    %rbx
  405208:	5d                   	pop    %rbp
  405209:	c3                   	retq   

000000000040520a <_ZNSt8_Rb_treeISsSt4pairIKSsiESt10_Select1stIS2_ESt4lessISsESaIS2_EE3endEv>:
  40520a:	55                   	push   %rbp
  40520b:	48 89 e5             	mov    %rsp,%rbp
  40520e:	48 83 ec 20          	sub    $0x20,%rsp
  405212:	48 89 7d e8          	mov    %rdi,-0x18(%rbp)
  405216:	48 8b 45 e8          	mov    -0x18(%rbp),%rax
  40521a:	48 8d 50 08          	lea    0x8(%rax),%rdx
  40521e:	48 8d 45 f0          	lea    -0x10(%rbp),%rax
  405222:	48 89 d6             	mov    %rdx,%rsi
  405225:	48 89 c7             	mov    %rax,%rdi
  405228:	e8 9d 0c 00 00       	callq  405eca <_ZNSt17_Rb_tree_iteratorISt4pairIKSsiEEC1EPSt13_Rb_tree_nodeIS2_E>
  40522d:	48 8b 45 f0          	mov    -0x10(%rbp),%rax
  405231:	c9                   	leaveq 
  405232:	c3                   	retq   
  405233:	90                   	nop

0000000000405234 <_ZNSt8_Rb_treeISsSt4pairIKSsiESt10_Select1stIS2_ESt4lessISsESaIS2_EEaSERKS8_>:
  405234:	55                   	push   %rbp
  405235:	48 89 e5             	mov    %rsp,%rbp
  405238:	41 54                	push   %r12
  40523a:	53                   	push   %rbx
  40523b:	48 83 ec 10          	sub    $0x10,%rsp
  40523f:	48 89 7d e8          	mov    %rdi,-0x18(%rbp)
  405243:	48 89 75 e0          	mov    %rsi,-0x20(%rbp)
  405247:	48 8b 45 e8          	mov    -0x18(%rbp),%rax
  40524b:	48 3b 45 e0          	cmp    -0x20(%rbp),%rax
  40524f:	0f 84 ca 00 00 00    	je     40531f <_ZNSt8_Rb_treeISsSt4pairIKSsiESt10_Select1stIS2_ESt4lessISsESaIS2_EEaSERKS8_+0xeb>
  405255:	48 8b 45 e8          	mov    -0x18(%rbp),%rax
  405259:	48 89 c7             	mov    %rax,%rdi
  40525c:	e8 83 0c 00 00       	callq  405ee4 <_ZNSt8_Rb_treeISsSt4pairIKSsiESt10_Select1stIS2_ESt4lessISsESaIS2_EE5clearEv>
  405261:	48 8b 45 e0          	mov    -0x20(%rbp),%rax
  405265:	48 89 c7             	mov    %rax,%rdi
  405268:	e8 05 0d 00 00       	callq  405f72 <_ZNKSt8_Rb_treeISsSt4pairIKSsiESt10_Select1stIS2_ESt4lessISsESaIS2_EE7_M_rootEv>
  40526d:	48 85 c0             	test   %rax,%rax
  405270:	0f 95 c0             	setne  %al
  405273:	84 c0                	test   %al,%al
  405275:	0f 84 a4 00 00 00    	je     40531f <_ZNSt8_Rb_treeISsSt4pairIKSsiESt10_Select1stIS2_ESt4lessISsESaIS2_EEaSERKS8_+0xeb>
  40527b:	48 8b 45 e8          	mov    -0x18(%rbp),%rax
  40527f:	48 89 c7             	mov    %rax,%rdi
  405282:	e8 6b 0e 00 00       	callq  4060f2 <_ZNSt8_Rb_treeISsSt4pairIKSsiESt10_Select1stIS2_ESt4lessISsESaIS2_EE7_M_rootEv>
  405287:	48 89 c3             	mov    %rax,%rbx
  40528a:	48 8b 45 e8          	mov    -0x18(%rbp),%rax
  40528e:	48 89 c7             	mov    %rax,%rdi
  405291:	e8 68 0b 00 00       	callq  405dfe <_ZNSt8_Rb_treeISsSt4pairIKSsiESt10_Select1stIS2_ESt4lessISsESaIS2_EE6_M_endEv>
  405296:	49 89 c4             	mov    %rax,%r12
  405299:	48 8b 45 e0          	mov    -0x20(%rbp),%rax
  40529d:	48 89 c7             	mov    %rax,%rdi
  4052a0:	e8 3b 0e 00 00       	callq  4060e0 <_ZNKSt8_Rb_treeISsSt4pairIKSsiESt10_Select1stIS2_ESt4lessISsESaIS2_EE8_M_beginEv>
  4052a5:	48 89 c1             	mov    %rax,%rcx
  4052a8:	48 8b 45 e8          	mov    -0x18(%rbp),%rax
  4052ac:	4c 89 e2             	mov    %r12,%rdx
  4052af:	48 89 ce             	mov    %rcx,%rsi
  4052b2:	48 89 c7             	mov    %rax,%rdi
  4052b5:	e8 ca 0c 00 00       	callq  405f84 <_ZNSt8_Rb_treeISsSt4pairIKSsiESt10_Select1stIS2_ESt4lessISsESaIS2_EE7_M_copyEPKSt13_Rb_tree_nodeIS2_EPSA_>
  4052ba:	48 89 03             	mov    %rax,(%rbx)
  4052bd:	48 8b 45 e8          	mov    -0x18(%rbp),%rax
  4052c1:	48 89 c7             	mov    %rax,%rdi
  4052c4:	e8 55 0e 00 00       	callq  40611e <_ZNSt8_Rb_treeISsSt4pairIKSsiESt10_Select1stIS2_ESt4lessISsESaIS2_EE11_M_leftmostEv>
  4052c9:	48 89 c3             	mov    %rax,%rbx
  4052cc:	48 8b 45 e8          	mov    -0x18(%rbp),%rax
  4052d0:	48 89 c7             	mov    %rax,%rdi
  4052d3:	e8 1a 0e 00 00       	callq  4060f2 <_ZNSt8_Rb_treeISsSt4pairIKSsiESt10_Select1stIS2_ESt4lessISsESaIS2_EE7_M_rootEv>
  4052d8:	48 8b 00             	mov    (%rax),%rax
  4052db:	48 89 c7             	mov    %rax,%rdi
  4052de:	e8 21 0e 00 00       	callq  406104 <_ZNSt8_Rb_treeISsSt4pairIKSsiESt10_Select1stIS2_ESt4lessISsESaIS2_EE10_S_minimumEPSt18_Rb_tree_node_base>
  4052e3:	48 89 03             	mov    %rax,(%rbx)
  4052e6:	48 8b 45 e8          	mov    -0x18(%rbp),%rax
  4052ea:	48 89 c7             	mov    %rax,%rdi
  4052ed:	e8 58 0e 00 00       	callq  40614a <_ZNSt8_Rb_treeISsSt4pairIKSsiESt10_Select1stIS2_ESt4lessISsESaIS2_EE12_M_rightmostEv>
  4052f2:	48 89 c3             	mov    %rax,%rbx
  4052f5:	48 8b 45 e8          	mov    -0x18(%rbp),%rax
  4052f9:	48 89 c7             	mov    %rax,%rdi
  4052fc:	e8 f1 0d 00 00       	callq  4060f2 <_ZNSt8_Rb_treeISsSt4pairIKSsiESt10_Select1stIS2_ESt4lessISsESaIS2_EE7_M_rootEv>
  405301:	48 8b 00             	mov    (%rax),%rax
  405304:	48 89 c7             	mov    %rax,%rdi
  405307:	e8 24 0e 00 00       	callq  406130 <_ZNSt8_Rb_treeISsSt4pairIKSsiESt10_Select1stIS2_ESt4lessISsESaIS2_EE10_S_maximumEPSt18_Rb_tree_node_base>
  40530c:	48 89 03             	mov    %rax,(%rbx)
  40530f:	48 8b 45 e0          	mov    -0x20(%rbp),%rax
  405313:	48 8b 50 28          	mov    0x28(%rax),%rdx
  405317:	48 8b 45 e8          	mov    -0x18(%rbp),%rax
  40531b:	48 89 50 28          	mov    %rdx,0x28(%rax)
  40531f:	48 8b 45 e8          	mov    -0x18(%rbp),%rax
  405323:	48 83 c4 10          	add    $0x10,%rsp
  405327:	5b                   	pop    %rbx
  405328:	41 5c                	pop    %r12
  40532a:	5d                   	pop    %rbp
  40532b:	c3                   	retq   

000000000040532c <_ZNSt8_Rb_treeIiSt4pairIKiSsESt10_Select1stIS2_ESt4lessIiESaIS2_EEaSERKS8_>:
  40532c:	55                   	push   %rbp
  40532d:	48 89 e5             	mov    %rsp,%rbp
  405330:	41 54                	push   %r12
  405332:	53                   	push   %rbx
  405333:	48 83 ec 10          	sub    $0x10,%rsp
  405337:	48 89 7d e8          	mov    %rdi,-0x18(%rbp)
  40533b:	48 89 75 e0          	mov    %rsi,-0x20(%rbp)
  40533f:	48 8b 45 e8          	mov    -0x18(%rbp),%rax
  405343:	48 3b 45 e0          	cmp    -0x20(%rbp),%rax
  405347:	0f 84 ca 00 00 00    	je     405417 <_ZNSt8_Rb_treeIiSt4pairIKiSsESt10_Select1stIS2_ESt4lessIiESaIS2_EEaSERKS8_+0xeb>
  40534d:	48 8b 45 e8          	mov    -0x18(%rbp),%rax
  405351:	48 89 c7             	mov    %rax,%rdi
  405354:	e8 03 0e 00 00       	callq  40615c <_ZNSt8_Rb_treeIiSt4pairIKiSsESt10_Select1stIS2_ESt4lessIiESaIS2_EE5clearEv>
  405359:	48 8b 45 e0          	mov    -0x20(%rbp),%rax
  40535d:	48 89 c7             	mov    %rax,%rdi
  405360:	e8 85 0e 00 00       	callq  4061ea <_ZNKSt8_Rb_treeIiSt4pairIKiSsESt10_Select1stIS2_ESt4lessIiESaIS2_EE7_M_rootEv>
  405365:	48 85 c0             	test   %rax,%rax
  405368:	0f 95 c0             	setne  %al
  40536b:	84 c0                	test   %al,%al
  40536d:	0f 84 a4 00 00 00    	je     405417 <_ZNSt8_Rb_treeIiSt4pairIKiSsESt10_Select1stIS2_ESt4lessIiESaIS2_EEaSERKS8_+0xeb>
  405373:	48 8b 45 e8          	mov    -0x18(%rbp),%rax
  405377:	48 89 c7             	mov    %rax,%rdi
  40537a:	e8 fd 0f 00 00       	callq  40637c <_ZNSt8_Rb_treeIiSt4pairIKiSsESt10_Select1stIS2_ESt4lessIiESaIS2_EE7_M_rootEv>
  40537f:	48 89 c3             	mov    %rax,%rbx
  405382:	48 8b 45 e8          	mov    -0x18(%rbp),%rax
  405386:	48 89 c7             	mov    %rax,%rdi
  405389:	e8 dc 0f 00 00       	callq  40636a <_ZNSt8_Rb_treeIiSt4pairIKiSsESt10_Select1stIS2_ESt4lessIiESaIS2_EE6_M_endEv>
  40538e:	49 89 c4             	mov    %rax,%r12
  405391:	48 8b 45 e0          	mov    -0x20(%rbp),%rax
  405395:	48 89 c7             	mov    %rax,%rdi
  405398:	e8 bb 0f 00 00       	callq  406358 <_ZNKSt8_Rb_treeIiSt4pairIKiSsESt10_Select1stIS2_ESt4lessIiESaIS2_EE8_M_beginEv>
  40539d:	48 89 c1             	mov    %rax,%rcx
  4053a0:	48 8b 45 e8          	mov    -0x18(%rbp),%rax
  4053a4:	4c 89 e2             	mov    %r12,%rdx
  4053a7:	48 89 ce             	mov    %rcx,%rsi
  4053aa:	48 89 c7             	mov    %rax,%rdi
  4053ad:	e8 4a 0e 00 00       	callq  4061fc <_ZNSt8_Rb_treeIiSt4pairIKiSsESt10_Select1stIS2_ESt4lessIiESaIS2_EE7_M_copyEPKSt13_Rb_tree_nodeIS2_EPSA_>
  4053b2:	48 89 03             	mov    %rax,(%rbx)
  4053b5:	48 8b 45 e8          	mov    -0x18(%rbp),%rax
  4053b9:	48 89 c7             	mov    %rax,%rdi
  4053bc:	e8 e7 0f 00 00       	callq  4063a8 <_ZNSt8_Rb_treeIiSt4pairIKiSsESt10_Select1stIS2_ESt4lessIiESaIS2_EE11_M_leftmostEv>
  4053c1:	48 89 c3             	mov    %rax,%rbx
  4053c4:	48 8b 45 e8          	mov    -0x18(%rbp),%rax
  4053c8:	48 89 c7             	mov    %rax,%rdi
  4053cb:	e8 ac 0f 00 00       	callq  40637c <_ZNSt8_Rb_treeIiSt4pairIKiSsESt10_Select1stIS2_ESt4lessIiESaIS2_EE7_M_rootEv>
  4053d0:	48 8b 00             	mov    (%rax),%rax
  4053d3:	48 89 c7             	mov    %rax,%rdi
  4053d6:	e8 b3 0f 00 00       	callq  40638e <_ZNSt8_Rb_treeIiSt4pairIKiSsESt10_Select1stIS2_ESt4lessIiESaIS2_EE10_S_minimumEPSt18_Rb_tree_node_base>
  4053db:	48 89 03             	mov    %rax,(%rbx)
  4053de:	48 8b 45 e8          	mov    -0x18(%rbp),%rax
  4053e2:	48 89 c7             	mov    %rax,%rdi
  4053e5:	e8 ea 0f 00 00       	callq  4063d4 <_ZNSt8_Rb_treeIiSt4pairIKiSsESt10_Select1stIS2_ESt4lessIiESaIS2_EE12_M_rightmostEv>
  4053ea:	48 89 c3             	mov    %rax,%rbx
  4053ed:	48 8b 45 e8          	mov    -0x18(%rbp),%rax
  4053f1:	48 89 c7             	mov    %rax,%rdi
  4053f4:	e8 83 0f 00 00       	callq  40637c <_ZNSt8_Rb_treeIiSt4pairIKiSsESt10_Select1stIS2_ESt4lessIiESaIS2_EE7_M_rootEv>
  4053f9:	48 8b 00             	mov    (%rax),%rax
  4053fc:	48 89 c7             	mov    %rax,%rdi
  4053ff:	e8 b6 0f 00 00       	callq  4063ba <_ZNSt8_Rb_treeIiSt4pairIKiSsESt10_Select1stIS2_ESt4lessIiESaIS2_EE10_S_maximumEPSt18_Rb_tree_node_base>
  405404:	48 89 03             	mov    %rax,(%rbx)
  405407:	48 8b 45 e0          	mov    -0x20(%rbp),%rax
  40540b:	48 8b 50 28          	mov    0x28(%rax),%rdx
  40540f:	48 8b 45 e8          	mov    -0x18(%rbp),%rax
  405413:	48 89 50 28          	mov    %rdx,0x28(%rax)
  405417:	48 8b 45 e8          	mov    -0x18(%rbp),%rax
  40541b:	48 83 c4 10          	add    $0x10,%rsp
  40541f:	5b                   	pop    %rbx
  405420:	41 5c                	pop    %r12
  405422:	5d                   	pop    %rbp
  405423:	c3                   	retq   

0000000000405424 <_ZNKSt6vectorIiSaIiEE8capacityEv>:
  405424:	55                   	push   %rbp
  405425:	48 89 e5             	mov    %rsp,%rbp
  405428:	48 89 7d f8          	mov    %rdi,-0x8(%rbp)
  40542c:	48 8b 45 f8          	mov    -0x8(%rbp),%rax
  405430:	48 8b 40 10          	mov    0x10(%rax),%rax
  405434:	48 89 c2             	mov    %rax,%rdx
  405437:	48 8b 45 f8          	mov    -0x8(%rbp),%rax
  40543b:	48 8b 00             	mov    (%rax),%rax
  40543e:	48 29 c2             	sub    %rax,%rdx
  405441:	48 89 d0             	mov    %rdx,%rax
  405444:	48 c1 f8 02          	sar    $0x2,%rax
  405448:	5d                   	pop    %rbp
  405449:	c3                   	retq   

000000000040544a <_ZNKSt6vectorIiSaIiEE5beginEv>:
  40544a:	55                   	push   %rbp
  40544b:	48 89 e5             	mov    %rsp,%rbp
  40544e:	48 83 ec 20          	sub    $0x20,%rsp
  405452:	48 89 7d e8          	mov    %rdi,-0x18(%rbp)
  405456:	48 8b 45 e8          	mov    -0x18(%rbp),%rax
  40545a:	48 8b 00             	mov    (%rax),%rax
  40545d:	48 89 45 f8          	mov    %rax,-0x8(%rbp)
  405461:	48 8d 55 f8          	lea    -0x8(%rbp),%rdx
  405465:	48 8d 45 f0          	lea    -0x10(%rbp),%rax
  405469:	48 89 d6             	mov    %rdx,%rsi
  40546c:	48 89 c7             	mov    %rax,%rdi
  40546f:	e8 72 0f 00 00       	callq  4063e6 <_ZN9__gnu_cxx17__normal_iteratorIPKiSt6vectorIiSaIiEEEC1ERKS2_>
  405474:	48 8b 45 f0          	mov    -0x10(%rbp),%rax
  405478:	c9                   	leaveq 
  405479:	c3                   	retq   

000000000040547a <_ZNKSt6vectorIiSaIiEE3endEv>:
  40547a:	55                   	push   %rbp
  40547b:	48 89 e5             	mov    %rsp,%rbp
  40547e:	48 83 ec 20          	sub    $0x20,%rsp
  405482:	48 89 7d e8          	mov    %rdi,-0x18(%rbp)
  405486:	48 8b 45 e8          	mov    -0x18(%rbp),%rax
  40548a:	48 8b 40 08          	mov    0x8(%rax),%rax
  40548e:	48 89 45 f8          	mov    %rax,-0x8(%rbp)
  405492:	48 8d 55 f8          	lea    -0x8(%rbp),%rdx
  405496:	48 8d 45 f0          	lea    -0x10(%rbp),%rax
  40549a:	48 89 d6             	mov    %rdx,%rsi
  40549d:	48 89 c7             	mov    %rax,%rdi
  4054a0:	e8 41 0f 00 00       	callq  4063e6 <_ZN9__gnu_cxx17__normal_iteratorIPKiSt6vectorIiSaIiEEEC1ERKS2_>
  4054a5:	48 8b 45 f0          	mov    -0x10(%rbp),%rax
  4054a9:	c9                   	leaveq 
  4054aa:	c3                   	retq   
  4054ab:	90                   	nop

00000000004054ac <_ZNSt6vectorIiSaIiEE20_M_allocate_and_copyIN9__gnu_cxx17__normal_iteratorIPKiS1_EEEEPimT_S9_>:
  4054ac:	55                   	push   %rbp
  4054ad:	48 89 e5             	mov    %rsp,%rbp
  4054b0:	53                   	push   %rbx
  4054b1:	48 83 ec 48          	sub    $0x48,%rsp
  4054b5:	48 89 7d d8          	mov    %rdi,-0x28(%rbp)
  4054b9:	48 89 75 d0          	mov    %rsi,-0x30(%rbp)
  4054bd:	48 89 55 c0          	mov    %rdx,-0x40(%rbp)
  4054c1:	48 89 4d b0          	mov    %rcx,-0x50(%rbp)
  4054c5:	48 8b 45 d8          	mov    -0x28(%rbp),%rax
  4054c9:	48 8b 55 d0          	mov    -0x30(%rbp),%rdx
  4054cd:	48 89 d6             	mov    %rdx,%rsi
  4054d0:	48 89 c7             	mov    %rax,%rdi
  4054d3:	e8 80 08 00 00       	callq  405d58 <_ZNSt12_Vector_baseIiSaIiEE11_M_allocateEm>
  4054d8:	48 89 45 e8          	mov    %rax,-0x18(%rbp)
  4054dc:	48 8b 45 d8          	mov    -0x28(%rbp),%rax
  4054e0:	48 89 c7             	mov    %rax,%rdi
  4054e3:	e8 f0 f5 ff ff       	callq  404ad8 <_ZNSt12_Vector_baseIiSaIiEE19_M_get_Tp_allocatorEv>
  4054e8:	48 89 c1             	mov    %rax,%rcx
  4054eb:	48 8b 55 e8          	mov    -0x18(%rbp),%rdx
  4054ef:	48 8b 75 b0          	mov    -0x50(%rbp),%rsi
  4054f3:	48 8b 45 c0          	mov    -0x40(%rbp),%rax
  4054f7:	48 89 c7             	mov    %rax,%rdi
  4054fa:	e8 03 0f 00 00       	callq  406402 <_ZSt22__uninitialized_copy_aIN9__gnu_cxx17__normal_iteratorIPKiSt6vectorIiSaIiEEEEPiiET0_T_SA_S9_RSaIT1_E>
  4054ff:	48 8b 45 e8          	mov    -0x18(%rbp),%rax
  405503:	eb 37                	jmp    40553c <_ZNSt6vectorIiSaIiEE20_M_allocate_and_copyIN9__gnu_cxx17__normal_iteratorIPKiS1_EEEEPimT_S9_+0x90>
  405505:	48 89 c3             	mov    %rax,%rbx
  405508:	e8 53 cc ff ff       	callq  402160 <__cxa_end_catch@plt>
  40550d:	48 89 d8             	mov    %rbx,%rax
  405510:	48 89 c7             	mov    %rax,%rdi
  405513:	e8 e8 cc ff ff       	callq  402200 <_Unwind_Resume@plt>
  405518:	48 89 c7             	mov    %rax,%rdi
  40551b:	e8 80 cc ff ff       	callq  4021a0 <__cxa_begin_catch@plt>
  405520:	48 8b 45 d8          	mov    -0x28(%rbp),%rax
  405524:	48 8b 55 d0          	mov    -0x30(%rbp),%rdx
  405528:	48 8b 4d e8          	mov    -0x18(%rbp),%rcx
  40552c:	48 89 ce             	mov    %rcx,%rsi
  40552f:	48 89 c7             	mov    %rax,%rdi
  405532:	e8 0d 00 00 00       	callq  405544 <_ZNSt12_Vector_baseIiSaIiEE13_M_deallocateEPim>
  405537:	e8 94 c9 ff ff       	callq  401ed0 <__cxa_rethrow@plt>
  40553c:	48 83 c4 48          	add    $0x48,%rsp
  405540:	5b                   	pop    %rbx
  405541:	5d                   	pop    %rbp
  405542:	c3                   	retq   
  405543:	90                   	nop

0000000000405544 <_ZNSt12_Vector_baseIiSaIiEE13_M_deallocateEPim>:
  405544:	55                   	push   %rbp
  405545:	48 89 e5             	mov    %rsp,%rbp
  405548:	48 83 ec 20          	sub    $0x20,%rsp
  40554c:	48 89 7d f8          	mov    %rdi,-0x8(%rbp)
  405550:	48 89 75 f0          	mov    %rsi,-0x10(%rbp)
  405554:	48 89 55 e8          	mov    %rdx,-0x18(%rbp)
  405558:	48 83 7d f0 00       	cmpq   $0x0,-0x10(%rbp)
  40555d:	74 17                	je     405576 <_ZNSt12_Vector_baseIiSaIiEE13_M_deallocateEPim+0x32>
  40555f:	48 8b 45 f8          	mov    -0x8(%rbp),%rax
  405563:	48 8b 55 e8          	mov    -0x18(%rbp),%rdx
  405567:	48 8b 4d f0          	mov    -0x10(%rbp),%rcx
  40556b:	48 89 ce             	mov    %rcx,%rsi
  40556e:	48 89 c7             	mov    %rax,%rdi
  405571:	e8 bd 0e 00 00       	callq  406433 <_ZN9__gnu_cxx14__alloc_traitsISaIiEE10deallocateERS1_Pim>
  405576:	c9                   	leaveq 
  405577:	c3                   	retq   

0000000000405578 <_ZNSt6vectorIiSaIiEE5beginEv>:
  405578:	55                   	push   %rbp
  405579:	48 89 e5             	mov    %rsp,%rbp
  40557c:	48 83 ec 20          	sub    $0x20,%rsp
  405580:	48 89 7d e8          	mov    %rdi,-0x18(%rbp)
  405584:	48 8b 55 e8          	mov    -0x18(%rbp),%rdx
  405588:	48 8d 45 f0          	lea    -0x10(%rbp),%rax
  40558c:	48 89 d6             	mov    %rdx,%rsi
  40558f:	48 89 c7             	mov    %rax,%rdi
  405592:	e8 4b 08 00 00       	callq  405de2 <_ZN9__gnu_cxx17__normal_iteratorIPiSt6vectorIiSaIiEEEC1ERKS1_>
  405597:	48 8b 45 f0          	mov    -0x10(%rbp),%rax
  40559b:	c9                   	leaveq 
  40559c:	c3                   	retq   

000000000040559d <_ZSt4copyIN9__gnu_cxx17__normal_iteratorIPKiSt6vectorIiSaIiEEEENS1_IPiS6_EEET0_T_SB_SA_>:
  40559d:	55                   	push   %rbp
  40559e:	48 89 e5             	mov    %rsp,%rbp
  4055a1:	53                   	push   %rbx
  4055a2:	48 83 ec 38          	sub    $0x38,%rsp
  4055a6:	48 89 7d e0          	mov    %rdi,-0x20(%rbp)
  4055aa:	48 89 75 d0          	mov    %rsi,-0x30(%rbp)
  4055ae:	48 89 55 c0          	mov    %rdx,-0x40(%rbp)
  4055b2:	48 8b 45 d0          	mov    -0x30(%rbp),%rax
  4055b6:	48 89 c7             	mov    %rax,%rdi
  4055b9:	e8 a2 0e 00 00       	callq  406460 <_ZSt12__miter_baseIN9__gnu_cxx17__normal_iteratorIPKiSt6vectorIiSaIiEEEEENSt11_Miter_baseIT_E13iterator_typeES9_>
  4055be:	48 89 c3             	mov    %rax,%rbx
  4055c1:	48 8b 45 e0          	mov    -0x20(%rbp),%rax
  4055c5:	48 89 c7             	mov    %rax,%rdi
  4055c8:	e8 93 0e 00 00       	callq  406460 <_ZSt12__miter_baseIN9__gnu_cxx17__normal_iteratorIPKiSt6vectorIiSaIiEEEEENSt11_Miter_baseIT_E13iterator_typeES9_>
  4055cd:	48 89 c1             	mov    %rax,%rcx
  4055d0:	48 8b 45 c0          	mov    -0x40(%rbp),%rax
  4055d4:	48 89 c2             	mov    %rax,%rdx
  4055d7:	48 89 de             	mov    %rbx,%rsi
  4055da:	48 89 cf             	mov    %rcx,%rdi
  4055dd:	e8 98 0e 00 00       	callq  40647a <_ZSt14__copy_move_a2ILb0EN9__gnu_cxx17__normal_iteratorIPKiSt6vectorIiSaIiEEEENS1_IPiS6_EEET1_T0_SB_SA_>
  4055e2:	48 83 c4 38          	add    $0x38,%rsp
  4055e6:	5b                   	pop    %rbx
  4055e7:	5d                   	pop    %rbp
  4055e8:	c3                   	retq   

00000000004055e9 <_ZSt8_DestroyIN9__gnu_cxx17__normal_iteratorIPiSt6vectorIiSaIiEEEEiEvT_S7_RSaIT0_E>:
  4055e9:	55                   	push   %rbp
  4055ea:	48 89 e5             	mov    %rsp,%rbp
  4055ed:	48 83 ec 20          	sub    $0x20,%rsp
  4055f1:	48 89 7d f0          	mov    %rdi,-0x10(%rbp)
  4055f5:	48 89 75 e0          	mov    %rsi,-0x20(%rbp)
  4055f9:	48 89 55 e8          	mov    %rdx,-0x18(%rbp)
  4055fd:	48 8b 55 e0          	mov    -0x20(%rbp),%rdx
  405601:	48 8b 45 f0          	mov    -0x10(%rbp),%rax
  405605:	48 89 d6             	mov    %rdx,%rsi
  405608:	48 89 c7             	mov    %rax,%rdi
  40560b:	e8 dd 0e 00 00       	callq  4064ed <_ZSt8_DestroyIN9__gnu_cxx17__normal_iteratorIPiSt6vectorIiSaIiEEEEEvT_S7_>
  405610:	c9                   	leaveq 
  405611:	c3                   	retq   

0000000000405612 <_ZSt4copyIPiS0_ET0_T_S2_S1_>:
  405612:	55                   	push   %rbp
  405613:	48 89 e5             	mov    %rsp,%rbp
  405616:	53                   	push   %rbx
  405617:	48 83 ec 28          	sub    $0x28,%rsp
  40561b:	48 89 7d e8          	mov    %rdi,-0x18(%rbp)
  40561f:	48 89 75 e0          	mov    %rsi,-0x20(%rbp)
  405623:	48 89 55 d8          	mov    %rdx,-0x28(%rbp)
  405627:	48 8b 45 e0          	mov    -0x20(%rbp),%rax
  40562b:	48 89 c7             	mov    %rax,%rdi
  40562e:	e8 df 0e 00 00       	callq  406512 <_ZSt12__miter_baseIPiENSt11_Miter_baseIT_E13iterator_typeES2_>
  405633:	48 89 c3             	mov    %rax,%rbx
  405636:	48 8b 45 e8          	mov    -0x18(%rbp),%rax
  40563a:	48 89 c7             	mov    %rax,%rdi
  40563d:	e8 d0 0e 00 00       	callq  406512 <_ZSt12__miter_baseIPiENSt11_Miter_baseIT_E13iterator_typeES2_>
  405642:	48 89 c1             	mov    %rax,%rcx
  405645:	48 8b 45 d8          	mov    -0x28(%rbp),%rax
  405649:	48 89 c2             	mov    %rax,%rdx
  40564c:	48 89 de             	mov    %rbx,%rsi
  40564f:	48 89 cf             	mov    %rcx,%rdi
  405652:	e8 d5 0e 00 00       	callq  40652c <_ZSt14__copy_move_a2ILb0EPiS0_ET1_T0_S2_S1_>
  405657:	48 83 c4 28          	add    $0x28,%rsp
  40565b:	5b                   	pop    %rbx
  40565c:	5d                   	pop    %rbp
  40565d:	c3                   	retq   

000000000040565e <_ZSt22__uninitialized_copy_aIPiS0_iET0_T_S2_S1_RSaIT1_E>:
  40565e:	55                   	push   %rbp
  40565f:	48 89 e5             	mov    %rsp,%rbp
  405662:	48 83 ec 20          	sub    $0x20,%rsp
  405666:	48 89 7d f8          	mov    %rdi,-0x8(%rbp)
  40566a:	48 89 75 f0          	mov    %rsi,-0x10(%rbp)
  40566e:	48 89 55 e8          	mov    %rdx,-0x18(%rbp)
  405672:	48 89 4d e0          	mov    %rcx,-0x20(%rbp)
  405676:	48 8b 55 e8          	mov    -0x18(%rbp),%rdx
  40567a:	48 8b 4d f0          	mov    -0x10(%rbp),%rcx
  40567e:	48 8b 45 f8          	mov    -0x8(%rbp),%rax
  405682:	48 89 ce             	mov    %rcx,%rsi
  405685:	48 89 c7             	mov    %rax,%rdi
  405688:	e8 f7 0e 00 00       	callq  406584 <_ZSt18uninitialized_copyIPiS0_ET0_T_S2_S1_>
  40568d:	c9                   	leaveq 
  40568e:	c3                   	retq   
  40568f:	90                   	nop

0000000000405690 <_ZN9__gnu_cxx13new_allocatorISt13_Rb_tree_nodeISt4pairIKSsiEEED1Ev>:
  405690:	55                   	push   %rbp
  405691:	48 89 e5             	mov    %rsp,%rbp
  405694:	48 89 7d f8          	mov    %rdi,-0x8(%rbp)
  405698:	5d                   	pop    %rbp
  405699:	c3                   	retq   

000000000040569a <_ZNSt8_Rb_treeISsSt4pairIKSsiESt10_Select1stIS2_ESt4lessISsESaIS2_EE8_S_rightEPSt18_Rb_tree_node_base>:
  40569a:	55                   	push   %rbp
  40569b:	48 89 e5             	mov    %rsp,%rbp
  40569e:	48 89 7d f8          	mov    %rdi,-0x8(%rbp)
  4056a2:	48 8b 45 f8          	mov    -0x8(%rbp),%rax
  4056a6:	48 8b 40 18          	mov    0x18(%rax),%rax
  4056aa:	5d                   	pop    %rbp
  4056ab:	c3                   	retq   

00000000004056ac <_ZNSt8_Rb_treeISsSt4pairIKSsiESt10_Select1stIS2_ESt4lessISsESaIS2_EE7_S_leftEPSt18_Rb_tree_node_base>:
  4056ac:	55                   	push   %rbp
  4056ad:	48 89 e5             	mov    %rsp,%rbp
  4056b0:	48 89 7d f8          	mov    %rdi,-0x8(%rbp)
  4056b4:	48 8b 45 f8          	mov    -0x8(%rbp),%rax
  4056b8:	48 8b 40 10          	mov    0x10(%rax),%rax
  4056bc:	5d                   	pop    %rbp
  4056bd:	c3                   	retq   

00000000004056be <_ZNSt8_Rb_treeISsSt4pairIKSsiESt10_Select1stIS2_ESt4lessISsESaIS2_EE15_M_destroy_nodeEPSt13_Rb_tree_nodeIS2_E>:
  4056be:	55                   	push   %rbp
  4056bf:	48 89 e5             	mov    %rsp,%rbp
  4056c2:	53                   	push   %rbx
  4056c3:	48 83 ec 28          	sub    $0x28,%rsp
  4056c7:	48 89 7d d8          	mov    %rdi,-0x28(%rbp)
  4056cb:	48 89 75 d0          	mov    %rsi,-0x30(%rbp)
  4056cf:	48 8b 45 d0          	mov    -0x30(%rbp),%rax
  4056d3:	48 89 c7             	mov    %rax,%rdi
  4056d6:	e8 af 01 00 00       	callq  40588a <_ZNSt13_Rb_tree_nodeISt4pairIKSsiEE9_M_valptrEv>
  4056db:	48 89 c3             	mov    %rax,%rbx
  4056de:	48 8d 45 ef          	lea    -0x11(%rbp),%rax
  4056e2:	48 8b 55 d8          	mov    -0x28(%rbp),%rdx
  4056e6:	48 89 d6             	mov    %rdx,%rsi
  4056e9:	48 89 c7             	mov    %rax,%rdi
  4056ec:	e8 c5 0e 00 00       	callq  4065b6 <_ZNKSt8_Rb_treeISsSt4pairIKSsiESt10_Select1stIS2_ESt4lessISsESaIS2_EE13get_allocatorEv>
  4056f1:	48 8d 45 ef          	lea    -0x11(%rbp),%rax
  4056f5:	48 89 de             	mov    %rbx,%rsi
  4056f8:	48 89 c7             	mov    %rax,%rdi
  4056fb:	e8 04 0f 00 00       	callq  406604 <_ZN9__gnu_cxx13new_allocatorISt4pairIKSsiEE7destroyEPS3_>
  405700:	48 8d 45 ef          	lea    -0x11(%rbp),%rax
  405704:	48 89 c7             	mov    %rax,%rdi
  405707:	e8 de 0e 00 00       	callq  4065ea <_ZNSaISt4pairIKSsiEED1Ev>
  40570c:	48 8b 55 d0          	mov    -0x30(%rbp),%rdx
  405710:	48 8b 45 d8          	mov    -0x28(%rbp),%rax
  405714:	48 89 d6             	mov    %rdx,%rsi
  405717:	48 89 c7             	mov    %rax,%rdi
  40571a:	e8 03 0f 00 00       	callq  406622 <_ZNSt8_Rb_treeISsSt4pairIKSsiESt10_Select1stIS2_ESt4lessISsESaIS2_EE11_M_put_nodeEPSt13_Rb_tree_nodeIS2_E>
  40571f:	eb 1a                	jmp    40573b <_ZNSt8_Rb_treeISsSt4pairIKSsiESt10_Select1stIS2_ESt4lessISsESaIS2_EE15_M_destroy_nodeEPSt13_Rb_tree_nodeIS2_E+0x7d>
  405721:	48 89 c3             	mov    %rax,%rbx
  405724:	48 8d 45 ef          	lea    -0x11(%rbp),%rax
  405728:	48 89 c7             	mov    %rax,%rdi
  40572b:	e8 ba 0e 00 00       	callq  4065ea <_ZNSaISt4pairIKSsiEED1Ev>
  405730:	48 89 d8             	mov    %rbx,%rax
  405733:	48 89 c7             	mov    %rax,%rdi
  405736:	e8 c5 ca ff ff       	callq  402200 <_Unwind_Resume@plt>
  40573b:	48 83 c4 28          	add    $0x28,%rsp
  40573f:	5b                   	pop    %rbx
  405740:	5d                   	pop    %rbp
  405741:	c3                   	retq   

0000000000405742 <_ZN9__gnu_cxx13new_allocatorISt13_Rb_tree_nodeISt4pairIKiSsEEED1Ev>:
  405742:	55                   	push   %rbp
  405743:	48 89 e5             	mov    %rsp,%rbp
  405746:	48 89 7d f8          	mov    %rdi,-0x8(%rbp)
  40574a:	5d                   	pop    %rbp
  40574b:	c3                   	retq   

000000000040574c <_ZNSt8_Rb_treeIiSt4pairIKiSsESt10_Select1stIS2_ESt4lessIiESaIS2_EE8_S_rightEPSt18_Rb_tree_node_base>:
  40574c:	55                   	push   %rbp
  40574d:	48 89 e5             	mov    %rsp,%rbp
  405750:	48 89 7d f8          	mov    %rdi,-0x8(%rbp)
  405754:	48 8b 45 f8          	mov    -0x8(%rbp),%rax
  405758:	48 8b 40 18          	mov    0x18(%rax),%rax
  40575c:	5d                   	pop    %rbp
  40575d:	c3                   	retq   

