
infusion_o2:     file format elf64-x86-64


Disassembly of section .init:

0000000000400670 <_init>:
  400670:	48 83 ec 08          	sub    rsp,0x8
  400674:	48 8b 05 7d 39 20 00 	mov    rax,QWORD PTR [rip+0x20397d]        # 603ff8 <_DYNAMIC+0x1d0>
  40067b:	48 85 c0             	test   rax,rax
  40067e:	74 05                	je     400685 <_init+0x15>
  400680:	e8 db 00 00 00       	call   400760 <__fprintf_chk@plt+0x10>
  400685:	48 83 c4 08          	add    rsp,0x8
  400689:	c3                   	ret    

Disassembly of section .plt:

0000000000400690 <strtod@plt-0x10>:
  400690:	ff 35 72 39 20 00    	push   QWORD PTR [rip+0x203972]        # 604008 <_GLOBAL_OFFSET_TABLE_+0x8>
  400696:	ff 25 74 39 20 00    	jmp    QWORD PTR [rip+0x203974]        # 604010 <_GLOBAL_OFFSET_TABLE_+0x10>
  40069c:	0f 1f 40 00          	nop    DWORD PTR [rax+0x0]

00000000004006a0 <strtod@plt>:
  4006a0:	ff 25 72 39 20 00    	jmp    QWORD PTR [rip+0x203972]        # 604018 <_GLOBAL_OFFSET_TABLE_+0x18>
  4006a6:	68 00 00 00 00       	push   0x0
  4006ab:	e9 e0 ff ff ff       	jmp    400690 <_init+0x20>

00000000004006b0 <fclose@plt>:
  4006b0:	ff 25 6a 39 20 00    	jmp    QWORD PTR [rip+0x20396a]        # 604020 <_GLOBAL_OFFSET_TABLE_+0x20>
  4006b6:	68 01 00 00 00       	push   0x1
  4006bb:	e9 d0 ff ff ff       	jmp    400690 <_init+0x20>

00000000004006c0 <strlen@plt>:
  4006c0:	ff 25 62 39 20 00    	jmp    QWORD PTR [rip+0x203962]        # 604028 <_GLOBAL_OFFSET_TABLE_+0x28>
  4006c6:	68 02 00 00 00       	push   0x2
  4006cb:	e9 c0 ff ff ff       	jmp    400690 <_init+0x20>

00000000004006d0 <__stack_chk_fail@plt>:
  4006d0:	ff 25 5a 39 20 00    	jmp    QWORD PTR [rip+0x20395a]        # 604030 <_GLOBAL_OFFSET_TABLE_+0x30>
  4006d6:	68 03 00 00 00       	push   0x3
  4006db:	e9 b0 ff ff ff       	jmp    400690 <_init+0x20>

00000000004006e0 <__libc_start_main@plt>:
  4006e0:	ff 25 52 39 20 00    	jmp    QWORD PTR [rip+0x203952]        # 604038 <_GLOBAL_OFFSET_TABLE_+0x38>
  4006e6:	68 04 00 00 00       	push   0x4
  4006eb:	e9 a0 ff ff ff       	jmp    400690 <_init+0x20>

00000000004006f0 <fgets@plt>:
  4006f0:	ff 25 4a 39 20 00    	jmp    QWORD PTR [rip+0x20394a]        # 604040 <_GLOBAL_OFFSET_TABLE_+0x40>
  4006f6:	68 05 00 00 00       	push   0x5
  4006fb:	e9 90 ff ff ff       	jmp    400690 <_init+0x20>

0000000000400700 <calloc@plt>:
  400700:	ff 25 42 39 20 00    	jmp    QWORD PTR [rip+0x203942]        # 604048 <_GLOBAL_OFFSET_TABLE_+0x48>
  400706:	68 06 00 00 00       	push   0x6
  40070b:	e9 80 ff ff ff       	jmp    400690 <_init+0x20>

0000000000400710 <malloc@plt>:
  400710:	ff 25 3a 39 20 00    	jmp    QWORD PTR [rip+0x20393a]        # 604050 <_GLOBAL_OFFSET_TABLE_+0x50>
  400716:	68 07 00 00 00       	push   0x7
  40071b:	e9 70 ff ff ff       	jmp    400690 <_init+0x20>

0000000000400720 <__isoc99_sscanf@plt>:
  400720:	ff 25 32 39 20 00    	jmp    QWORD PTR [rip+0x203932]        # 604058 <_GLOBAL_OFFSET_TABLE_+0x58>
  400726:	68 08 00 00 00       	push   0x8
  40072b:	e9 60 ff ff ff       	jmp    400690 <_init+0x20>

0000000000400730 <__printf_chk@plt>:
  400730:	ff 25 2a 39 20 00    	jmp    QWORD PTR [rip+0x20392a]        # 604060 <_GLOBAL_OFFSET_TABLE_+0x60>
  400736:	68 09 00 00 00       	push   0x9
  40073b:	e9 50 ff ff ff       	jmp    400690 <_init+0x20>

0000000000400740 <fopen@plt>:
  400740:	ff 25 22 39 20 00    	jmp    QWORD PTR [rip+0x203922]        # 604068 <_GLOBAL_OFFSET_TABLE_+0x68>
  400746:	68 0a 00 00 00       	push   0xa
  40074b:	e9 40 ff ff ff       	jmp    400690 <_init+0x20>

0000000000400750 <__fprintf_chk@plt>:
  400750:	ff 25 1a 39 20 00    	jmp    QWORD PTR [rip+0x20391a]        # 604070 <_GLOBAL_OFFSET_TABLE_+0x70>
  400756:	68 0b 00 00 00       	push   0xb
  40075b:	e9 30 ff ff ff       	jmp    400690 <_init+0x20>

Disassembly of section .plt.got:

0000000000400760 <.plt.got>:
  400760:	ff 25 92 38 20 00    	jmp    QWORD PTR [rip+0x203892]        # 603ff8 <_DYNAMIC+0x1d0>
  400766:	66 90                	xchg   ax,ax

Disassembly of section .text:

0000000000400770 <main>:
  400770:	41 57                	push   r15
  400772:	41 56                	push   r14
  400774:	41 55                	push   r13
  400776:	41 54                	push   r12
  400778:	55                   	push   rbp
  400779:	53                   	push   rbx
  40077a:	48 83 ec 38          	sub    rsp,0x38
  40077e:	64 48 8b 04 25 28 00 	mov    rax,QWORD PTR fs:0x28
  400785:	00 00 
  400787:	48 89 44 24 28       	mov    QWORD PTR [rsp+0x28],rax
  40078c:	31 c0                	xor    eax,eax
  40078e:	83 ff 02             	cmp    edi,0x2
  400791:	75 51                	jne    4007e4 <main+0x74>
  400793:	48 8b 7e 08          	mov    rdi,QWORD PTR [rsi+0x8]
  400797:	48 89 f3             	mov    rbx,rsi
  40079a:	be c0 31 40 00       	mov    esi,0x4031c0
  40079f:	e8 9c ff ff ff       	call   400740 <fopen@plt>
  4007a4:	48 85 c0             	test   rax,rax
  4007a7:	75 4f                	jne    4007f8 <main+0x88>
  4007a9:	48 8b 53 08          	mov    rdx,QWORD PTR [rbx+0x8]
  4007ad:	be c2 31 40 00       	mov    esi,0x4031c2
  4007b2:	bf 01 00 00 00       	mov    edi,0x1
  4007b7:	e8 74 ff ff ff       	call   400730 <__printf_chk@plt>
  4007bc:	b8 ff ff ff ff       	mov    eax,0xffffffff
  4007c1:	48 8b 54 24 28       	mov    rdx,QWORD PTR [rsp+0x28]
  4007c6:	64 48 33 14 25 28 00 	xor    rdx,QWORD PTR fs:0x28
  4007cd:	00 00 
  4007cf:	0f 85 a9 02 00 00    	jne    400a7e <main+0x30e>
  4007d5:	48 83 c4 38          	add    rsp,0x38
  4007d9:	5b                   	pop    rbx
  4007da:	5d                   	pop    rbp
  4007db:	41 5c                	pop    r12
  4007dd:	41 5d                	pop    r13
  4007df:	41 5e                	pop    r14
  4007e1:	41 5f                	pop    r15
  4007e3:	c3                   	ret    
  4007e4:	be 48 32 40 00       	mov    esi,0x403248
  4007e9:	bf 01 00 00 00       	mov    edi,0x1
  4007ee:	e8 3d ff ff ff       	call   400730 <__printf_chk@plt>
  4007f3:	83 c8 ff             	or     eax,0xffffffff
  4007f6:	eb c9                	jmp    4007c1 <main+0x51>
  4007f8:	48 8d 74 24 10       	lea    rsi,[rsp+0x10]
  4007fd:	48 89 c7             	mov    rdi,rax
  400800:	48 89 44 24 08       	mov    QWORD PTR [rsp+0x8],rax
  400805:	48 8d 5c 24 10       	lea    rbx,[rsp+0x10]
  40080a:	31 ed                	xor    ebp,ebp
  40080c:	e8 ef 27 00 00       	call   403000 <populate_tests>
  400811:	48 8b 44 24 08       	mov    rax,QWORD PTR [rsp+0x8]
  400816:	48 89 c7             	mov    rdi,rax
  400819:	e8 92 fe ff ff       	call   4006b0 <fclose@plt>
  40081e:	31 ff                	xor    edi,edi
  400820:	e8 7b 04 00 00       	call   400ca0 <top_new_ctx>
  400825:	49 89 c7             	mov    r15,rax
  400828:	c7 40 70 01 00 00 00 	mov    DWORD PTR [rax+0x70],0x1
  40082f:	c7 40 78 01 00 00 00 	mov    DWORD PTR [rax+0x78],0x1
  400836:	c7 80 80 00 00 00 01 	mov    DWORD PTR [rax+0x80],0x1
  40083d:	00 00 00 
  400840:	c7 80 88 00 00 00 01 	mov    DWORD PTR [rax+0x88],0x1
  400847:	00 00 00 
  40084a:	be af 31 40 00       	mov    esi,0x4031af
  40084f:	c7 80 90 00 00 00 01 	mov    DWORD PTR [rax+0x90],0x1
  400856:	00 00 00 
  400859:	c7 80 98 00 00 00 01 	mov    DWORD PTR [rax+0x98],0x1
  400860:	00 00 00 
  400863:	bf d5 31 40 00       	mov    edi,0x4031d5
  400868:	c7 80 a0 00 00 00 01 	mov    DWORD PTR [rax+0xa0],0x1
  40086f:	00 00 00 
  400872:	c7 80 a8 00 00 00 01 	mov    DWORD PTR [rax+0xa8],0x1
  400879:	00 00 00 
  40087c:	4d 8d b7 18 01 00 00 	lea    r14,[r15+0x118]
  400883:	c7 80 b0 00 00 00 01 	mov    DWORD PTR [rax+0xb0],0x1
  40088a:	00 00 00 
  40088d:	c7 80 b8 00 00 00 01 	mov    DWORD PTR [rax+0xb8],0x1
  400894:	00 00 00 
  400897:	4d 8d 6f 08          	lea    r13,[r15+0x8]
  40089b:	c7 80 c0 00 00 00 01 	mov    DWORD PTR [rax+0xc0],0x1
  4008a2:	00 00 00 
  4008a5:	c7 80 c8 00 00 00 01 	mov    DWORD PTR [rax+0xc8],0x1
  4008ac:	00 00 00 
  4008af:	c7 80 d0 00 00 00 01 	mov    DWORD PTR [rax+0xd0],0x1
  4008b6:	00 00 00 
  4008b9:	c7 80 d8 00 00 00 01 	mov    DWORD PTR [rax+0xd8],0x1
  4008c0:	00 00 00 
  4008c3:	c7 80 e0 00 00 00 01 	mov    DWORD PTR [rax+0xe0],0x1
  4008ca:	00 00 00 
  4008cd:	c7 80 e8 00 00 00 01 	mov    DWORD PTR [rax+0xe8],0x1
  4008d4:	00 00 00 
  4008d7:	c7 80 f0 00 00 00 01 	mov    DWORD PTR [rax+0xf0],0x1
  4008de:	00 00 00 
  4008e1:	c7 80 f8 00 00 00 01 	mov    DWORD PTR [rax+0xf8],0x1
  4008e8:	00 00 00 
  4008eb:	c7 80 00 01 00 00 01 	mov    DWORD PTR [rax+0x100],0x1
  4008f2:	00 00 00 
  4008f5:	c7 80 08 01 00 00 01 	mov    DWORD PTR [rax+0x108],0x1
  4008fc:	00 00 00 
  4008ff:	c7 80 0c 01 00 00 01 	mov    DWORD PTR [rax+0x10c],0x1
  400906:	00 00 00 
  400909:	e8 32 fe ff ff       	call   400740 <fopen@plt>
  40090e:	48 89 44 24 08       	mov    QWORD PTR [rsp+0x8],rax
  400913:	0f 1f 44 00 00       	nop    DWORD PTR [rax+rax*1+0x0]
  400918:	4c 8b 23             	mov    r12,QWORD PTR [rbx]
  40091b:	4d 85 e4             	test   r12,r12
  40091e:	74 1d                	je     40093d <main+0x1cd>
  400920:	4c 89 e6             	mov    rsi,r12
  400923:	4c 89 ff             	mov    rdi,r15
  400926:	e8 e5 22 00 00       	call   402c10 <assign_inputs>
  40092b:	4c 89 ff             	mov    rdi,r15
  40092e:	e8 5d 04 00 00       	call   400d90 <top_step>
  400933:	4d 8b 64 24 50       	mov    r12,QWORD PTR [r12+0x50]
  400938:	4d 85 e4             	test   r12,r12
  40093b:	75 e3                	jne    400920 <main+0x1b0>
  40093d:	4c 89 ef             	mov    rdi,r13
  400940:	4c 89 f9             	mov    rcx,r15
  400943:	31 c0                	xor    eax,eax
  400945:	48 83 e7 f8          	and    rdi,0xfffffffffffffff8
  400949:	49 c7 07 00 00 00 00 	mov    QWORD PTR [r15],0x0
  400950:	49 c7 46 f0 00 00 00 	mov    QWORD PTR [r14-0x10],0x0
  400957:	00 
  400958:	48 29 f9             	sub    rcx,rdi
  40095b:	48 83 c5 01          	add    rbp,0x1
  40095f:	81 c1 10 01 00 00    	add    ecx,0x110
  400965:	c1 e9 03             	shr    ecx,0x3
  400968:	f3 48 ab             	rep stos QWORD PTR es:[rdi],rax
  40096b:	41 c7 47 70 01 00 00 	mov    DWORD PTR [r15+0x70],0x1
  400972:	00 
  400973:	41 c7 47 78 01 00 00 	mov    DWORD PTR [r15+0x78],0x1
  40097a:	00 
  40097b:	41 c7 87 80 00 00 00 	mov    DWORD PTR [r15+0x80],0x1
  400982:	01 00 00 00 
  400986:	41 c7 87 88 00 00 00 	mov    DWORD PTR [r15+0x88],0x1
  40098d:	01 00 00 00 
  400991:	48 8b 5b 08          	mov    rbx,QWORD PTR [rbx+0x8]
  400995:	41 c7 87 90 00 00 00 	mov    DWORD PTR [r15+0x90],0x1
  40099c:	01 00 00 00 
  4009a0:	41 c7 87 98 00 00 00 	mov    DWORD PTR [r15+0x98],0x1
  4009a7:	01 00 00 00 
  4009ab:	41 c7 87 a0 00 00 00 	mov    DWORD PTR [r15+0xa0],0x1
  4009b2:	01 00 00 00 
  4009b6:	41 c7 87 a8 00 00 00 	mov    DWORD PTR [r15+0xa8],0x1
  4009bd:	01 00 00 00 
  4009c1:	41 c7 87 b0 00 00 00 	mov    DWORD PTR [r15+0xb0],0x1
  4009c8:	01 00 00 00 
  4009cc:	48 85 db             	test   rbx,rbx
  4009cf:	41 c7 87 b8 00 00 00 	mov    DWORD PTR [r15+0xb8],0x1
  4009d6:	01 00 00 00 
  4009da:	41 c7 87 c0 00 00 00 	mov    DWORD PTR [r15+0xc0],0x1
  4009e1:	01 00 00 00 
  4009e5:	41 c7 87 c8 00 00 00 	mov    DWORD PTR [r15+0xc8],0x1
  4009ec:	01 00 00 00 
  4009f0:	41 c7 87 d0 00 00 00 	mov    DWORD PTR [r15+0xd0],0x1
  4009f7:	01 00 00 00 
  4009fb:	41 c7 87 d8 00 00 00 	mov    DWORD PTR [r15+0xd8],0x1
  400a02:	01 00 00 00 
  400a06:	41 c7 87 e0 00 00 00 	mov    DWORD PTR [r15+0xe0],0x1
  400a0d:	01 00 00 00 
  400a11:	41 c7 87 e8 00 00 00 	mov    DWORD PTR [r15+0xe8],0x1
  400a18:	01 00 00 00 
  400a1c:	41 c7 87 f0 00 00 00 	mov    DWORD PTR [r15+0xf0],0x1
  400a23:	01 00 00 00 
  400a27:	41 c7 87 f8 00 00 00 	mov    DWORD PTR [r15+0xf8],0x1
  400a2e:	01 00 00 00 
  400a32:	41 c7 87 00 01 00 00 	mov    DWORD PTR [r15+0x100],0x1
  400a39:	01 00 00 00 
  400a3d:	41 c7 87 08 01 00 00 	mov    DWORD PTR [r15+0x108],0x1
  400a44:	01 00 00 00 
  400a48:	41 c7 87 0c 01 00 00 	mov    DWORD PTR [r15+0x10c],0x1
  400a4f:	01 00 00 00 
  400a53:	0f 85 bf fe ff ff    	jne    400918 <main+0x1a8>
  400a59:	48 8b 7c 24 08       	mov    rdi,QWORD PTR [rsp+0x8]
  400a5e:	e8 4d fc ff ff       	call   4006b0 <fclose@plt>
  400a63:	48 89 ea             	mov    rdx,rbp
  400a66:	be 70 32 40 00       	mov    esi,0x403270
  400a6b:	bf 01 00 00 00       	mov    edi,0x1
  400a70:	31 c0                	xor    eax,eax
  400a72:	e8 b9 fc ff ff       	call   400730 <__printf_chk@plt>
  400a77:	31 c0                	xor    eax,eax
  400a79:	e9 43 fd ff ff       	jmp    4007c1 <main+0x51>
  400a7e:	e8 4d fc ff ff       	call   4006d0 <__stack_chk_fail@plt>
  400a83:	66 2e 0f 1f 84 00 00 	nop    WORD PTR cs:[rax+rax*1+0x0]
  400a8a:	00 00 00 
  400a8d:	0f 1f 00             	nop    DWORD PTR [rax]

0000000000400a90 <_start>:
  400a90:	31 ed                	xor    ebp,ebp
  400a92:	49 89 d1             	mov    r9,rdx
  400a95:	5e                   	pop    rsi
  400a96:	48 89 e2             	mov    rdx,rsp
  400a99:	48 83 e4 f0          	and    rsp,0xfffffffffffffff0
  400a9d:	50                   	push   rax
  400a9e:	54                   	push   rsp
  400a9f:	49 c7 c0 90 31 40 00 	mov    r8,0x403190
  400aa6:	48 c7 c1 20 31 40 00 	mov    rcx,0x403120
  400aad:	48 c7 c7 70 07 40 00 	mov    rdi,0x400770
  400ab4:	e8 27 fc ff ff       	call   4006e0 <__libc_start_main@plt>
  400ab9:	f4                   	hlt    
  400aba:	66 0f 1f 44 00 00    	nop    WORD PTR [rax+rax*1+0x0]

0000000000400ac0 <deregister_tm_clones>:
  400ac0:	b8 8f 40 60 00       	mov    eax,0x60408f
  400ac5:	55                   	push   rbp
  400ac6:	48 2d 88 40 60 00    	sub    rax,0x604088
  400acc:	48 83 f8 0e          	cmp    rax,0xe
  400ad0:	48 89 e5             	mov    rbp,rsp
  400ad3:	76 1b                	jbe    400af0 <deregister_tm_clones+0x30>
  400ad5:	b8 00 00 00 00       	mov    eax,0x0
  400ada:	48 85 c0             	test   rax,rax
  400add:	74 11                	je     400af0 <deregister_tm_clones+0x30>
  400adf:	5d                   	pop    rbp
  400ae0:	bf 88 40 60 00       	mov    edi,0x604088
  400ae5:	ff e0                	jmp    rax
  400ae7:	66 0f 1f 84 00 00 00 	nop    WORD PTR [rax+rax*1+0x0]
  400aee:	00 00 
  400af0:	5d                   	pop    rbp
  400af1:	c3                   	ret    
  400af2:	0f 1f 40 00          	nop    DWORD PTR [rax+0x0]
  400af6:	66 2e 0f 1f 84 00 00 	nop    WORD PTR cs:[rax+rax*1+0x0]
  400afd:	00 00 00 

0000000000400b00 <register_tm_clones>:
  400b00:	be 88 40 60 00       	mov    esi,0x604088
  400b05:	55                   	push   rbp
  400b06:	48 81 ee 88 40 60 00 	sub    rsi,0x604088
  400b0d:	48 c1 fe 03          	sar    rsi,0x3
  400b11:	48 89 e5             	mov    rbp,rsp
  400b14:	48 89 f0             	mov    rax,rsi
  400b17:	48 c1 e8 3f          	shr    rax,0x3f
  400b1b:	48 01 c6             	add    rsi,rax
  400b1e:	48 d1 fe             	sar    rsi,1
  400b21:	74 15                	je     400b38 <register_tm_clones+0x38>
  400b23:	b8 00 00 00 00       	mov    eax,0x0
  400b28:	48 85 c0             	test   rax,rax
  400b2b:	74 0b                	je     400b38 <register_tm_clones+0x38>
  400b2d:	5d                   	pop    rbp
  400b2e:	bf 88 40 60 00       	mov    edi,0x604088
  400b33:	ff e0                	jmp    rax
  400b35:	0f 1f 00             	nop    DWORD PTR [rax]
  400b38:	5d                   	pop    rbp
  400b39:	c3                   	ret    
  400b3a:	66 0f 1f 44 00 00    	nop    WORD PTR [rax+rax*1+0x0]

0000000000400b40 <__do_global_dtors_aux>:
  400b40:	80 3d 41 35 20 00 00 	cmp    BYTE PTR [rip+0x203541],0x0        # 604088 <__TMC_END__>
  400b47:	75 11                	jne    400b5a <__do_global_dtors_aux+0x1a>
  400b49:	55                   	push   rbp
  400b4a:	48 89 e5             	mov    rbp,rsp
  400b4d:	e8 6e ff ff ff       	call   400ac0 <deregister_tm_clones>
  400b52:	5d                   	pop    rbp
  400b53:	c6 05 2e 35 20 00 01 	mov    BYTE PTR [rip+0x20352e],0x1        # 604088 <__TMC_END__>
  400b5a:	f3 c3                	repz ret 
  400b5c:	0f 1f 40 00          	nop    DWORD PTR [rax+0x0]

0000000000400b60 <frame_dummy>:
  400b60:	bf 20 3e 60 00       	mov    edi,0x603e20
  400b65:	48 83 3f 00          	cmp    QWORD PTR [rdi],0x0
  400b69:	75 05                	jne    400b70 <frame_dummy+0x10>
  400b6b:	eb 93                	jmp    400b00 <register_tm_clones>
  400b6d:	0f 1f 00             	nop    DWORD PTR [rax]
  400b70:	b8 00 00 00 00       	mov    eax,0x0
  400b75:	48 85 c0             	test   rax,rax
  400b78:	74 f1                	je     400b6b <frame_dummy+0xb>
  400b7a:	55                   	push   rbp
  400b7b:	48 89 e5             	mov    rbp,rsp
  400b7e:	ff d0                	call   rax
  400b80:	5d                   	pop    rbp
  400b81:	e9 7a ff ff ff       	jmp    400b00 <register_tm_clones>
  400b86:	66 2e 0f 1f 84 00 00 	nop    WORD PTR cs:[rax+rax*1+0x0]
  400b8d:	00 00 00 

0000000000400b90 <top_reset>:
  400b90:	c7 47 70 01 00 00 00 	mov    DWORD PTR [rdi+0x70],0x1
  400b97:	c7 47 78 01 00 00 00 	mov    DWORD PTR [rdi+0x78],0x1
  400b9e:	c7 87 80 00 00 00 01 	mov    DWORD PTR [rdi+0x80],0x1
  400ba5:	00 00 00 
  400ba8:	c7 87 88 00 00 00 01 	mov    DWORD PTR [rdi+0x88],0x1
  400baf:	00 00 00 
  400bb2:	c7 87 90 00 00 00 01 	mov    DWORD PTR [rdi+0x90],0x1
  400bb9:	00 00 00 
  400bbc:	c7 87 98 00 00 00 01 	mov    DWORD PTR [rdi+0x98],0x1
  400bc3:	00 00 00 
  400bc6:	c7 87 a0 00 00 00 01 	mov    DWORD PTR [rdi+0xa0],0x1
  400bcd:	00 00 00 
  400bd0:	c7 87 a8 00 00 00 01 	mov    DWORD PTR [rdi+0xa8],0x1
  400bd7:	00 00 00 
  400bda:	c7 87 b0 00 00 00 01 	mov    DWORD PTR [rdi+0xb0],0x1
  400be1:	00 00 00 
  400be4:	c7 87 b8 00 00 00 01 	mov    DWORD PTR [rdi+0xb8],0x1
  400beb:	00 00 00 
  400bee:	c7 87 c0 00 00 00 01 	mov    DWORD PTR [rdi+0xc0],0x1
  400bf5:	00 00 00 
  400bf8:	c7 87 c8 00 00 00 01 	mov    DWORD PTR [rdi+0xc8],0x1
  400bff:	00 00 00 
  400c02:	c7 87 d0 00 00 00 01 	mov    DWORD PTR [rdi+0xd0],0x1
  400c09:	00 00 00 
  400c0c:	c7 87 d8 00 00 00 01 	mov    DWORD PTR [rdi+0xd8],0x1
  400c13:	00 00 00 
  400c16:	c7 87 e0 00 00 00 01 	mov    DWORD PTR [rdi+0xe0],0x1
  400c1d:	00 00 00 
  400c20:	c7 87 e8 00 00 00 01 	mov    DWORD PTR [rdi+0xe8],0x1
  400c27:	00 00 00 
  400c2a:	c7 87 f0 00 00 00 01 	mov    DWORD PTR [rdi+0xf0],0x1
  400c31:	00 00 00 
  400c34:	c7 87 f8 00 00 00 01 	mov    DWORD PTR [rdi+0xf8],0x1
  400c3b:	00 00 00 
  400c3e:	c7 87 00 01 00 00 01 	mov    DWORD PTR [rdi+0x100],0x1
  400c45:	00 00 00 
  400c48:	c7 87 08 01 00 00 01 	mov    DWORD PTR [rdi+0x108],0x1
  400c4f:	00 00 00 
  400c52:	c7 87 0c 01 00 00 01 	mov    DWORD PTR [rdi+0x10c],0x1
  400c59:	00 00 00 
  400c5c:	c3                   	ret    
  400c5d:	0f 1f 00             	nop    DWORD PTR [rax]

0000000000400c60 <top_copy_ctx>:
  400c60:	48 8b 06             	mov    rax,QWORD PTR [rsi]
  400c63:	48 89 f9             	mov    rcx,rdi
  400c66:	48 8d 7f 08          	lea    rdi,[rdi+0x8]
  400c6a:	48 89 47 f8          	mov    QWORD PTR [rdi-0x8],rax
  400c6e:	48 8b 86 08 01 00 00 	mov    rax,QWORD PTR [rsi+0x108]
  400c75:	48 89 87 00 01 00 00 	mov    QWORD PTR [rdi+0x100],rax
  400c7c:	48 83 e7 f8          	and    rdi,0xfffffffffffffff8
  400c80:	48 29 f9             	sub    rcx,rdi
  400c83:	48 29 ce             	sub    rsi,rcx
  400c86:	81 c1 10 01 00 00    	add    ecx,0x110
  400c8c:	c1 e9 03             	shr    ecx,0x3
  400c8f:	f3 48 a5             	rep movs QWORD PTR es:[rdi],QWORD PTR ds:[rsi]
  400c92:	c3                   	ret    
  400c93:	0f 1f 00             	nop    DWORD PTR [rax]
  400c96:	66 2e 0f 1f 84 00 00 	nop    WORD PTR cs:[rax+rax*1+0x0]
  400c9d:	00 00 00 

0000000000400ca0 <top_new_ctx>:
  400ca0:	53                   	push   rbx
  400ca1:	be 10 01 00 00       	mov    esi,0x110
  400ca6:	48 89 fb             	mov    rbx,rdi
  400ca9:	bf 01 00 00 00       	mov    edi,0x1
  400cae:	e8 4d fa ff ff       	call   400700 <calloc@plt>
  400cb3:	48 89 18             	mov    QWORD PTR [rax],rbx
  400cb6:	c7 40 70 01 00 00 00 	mov    DWORD PTR [rax+0x70],0x1
  400cbd:	c7 40 78 01 00 00 00 	mov    DWORD PTR [rax+0x78],0x1
  400cc4:	c7 80 80 00 00 00 01 	mov    DWORD PTR [rax+0x80],0x1
  400ccb:	00 00 00 
  400cce:	c7 80 88 00 00 00 01 	mov    DWORD PTR [rax+0x88],0x1
  400cd5:	00 00 00 
  400cd8:	c7 80 90 00 00 00 01 	mov    DWORD PTR [rax+0x90],0x1
  400cdf:	00 00 00 
  400ce2:	c7 80 98 00 00 00 01 	mov    DWORD PTR [rax+0x98],0x1
  400ce9:	00 00 00 
  400cec:	c7 80 a0 00 00 00 01 	mov    DWORD PTR [rax+0xa0],0x1
  400cf3:	00 00 00 
  400cf6:	c7 80 a8 00 00 00 01 	mov    DWORD PTR [rax+0xa8],0x1
  400cfd:	00 00 00 
  400d00:	c7 80 b0 00 00 00 01 	mov    DWORD PTR [rax+0xb0],0x1
  400d07:	00 00 00 
  400d0a:	c7 80 b8 00 00 00 01 	mov    DWORD PTR [rax+0xb8],0x1
  400d11:	00 00 00 
  400d14:	c7 80 c0 00 00 00 01 	mov    DWORD PTR [rax+0xc0],0x1
  400d1b:	00 00 00 
  400d1e:	c7 80 c8 00 00 00 01 	mov    DWORD PTR [rax+0xc8],0x1
  400d25:	00 00 00 
  400d28:	c7 80 d0 00 00 00 01 	mov    DWORD PTR [rax+0xd0],0x1
  400d2f:	00 00 00 
  400d32:	c7 80 d8 00 00 00 01 	mov    DWORD PTR [rax+0xd8],0x1
  400d39:	00 00 00 
  400d3c:	c7 80 e0 00 00 00 01 	mov    DWORD PTR [rax+0xe0],0x1
  400d43:	00 00 00 
  400d46:	c7 80 e8 00 00 00 01 	mov    DWORD PTR [rax+0xe8],0x1
  400d4d:	00 00 00 
  400d50:	c7 80 f0 00 00 00 01 	mov    DWORD PTR [rax+0xf0],0x1
  400d57:	00 00 00 
  400d5a:	c7 80 f8 00 00 00 01 	mov    DWORD PTR [rax+0xf8],0x1
  400d61:	00 00 00 
  400d64:	c7 80 00 01 00 00 01 	mov    DWORD PTR [rax+0x100],0x1
  400d6b:	00 00 00 
  400d6e:	c7 80 08 01 00 00 01 	mov    DWORD PTR [rax+0x108],0x1
  400d75:	00 00 00 
  400d78:	c7 80 0c 01 00 00 01 	mov    DWORD PTR [rax+0x10c],0x1
  400d7f:	00 00 00 
  400d82:	5b                   	pop    rbx
  400d83:	c3                   	ret    
  400d84:	66 90                	xchg   ax,ax
  400d86:	66 2e 0f 1f 84 00 00 	nop    WORD PTR cs:[rax+rax*1+0x0]
  400d8d:	00 00 00 

0000000000400d90 <top_step>:
  400d90:	41 57                	push   r15
  400d92:	41 56                	push   r14
  400d94:	41 55                	push   r13
  400d96:	41 54                	push   r12
  400d98:	55                   	push   rbp
  400d99:	53                   	push   rbx
  400d9a:	48 83 ec 68          	sub    rsp,0x68
  400d9e:	44 8b a7 0c 01 00 00 	mov    r12d,DWORD PTR [rdi+0x10c]
  400da5:	45 85 e4             	test   r12d,r12d
  400da8:	0f 84 3a 16 00 00    	je     4023e8 <top_step+0x1658>
  400dae:	44 8b 7f 08          	mov    r15d,DWORD PTR [rdi+0x8]
  400db2:	c7 44 24 a4 01 00 00 	mov    DWORD PTR [rsp-0x5c],0x1
  400db9:	00 
  400dba:	45 31 f6             	xor    r14d,r14d
  400dbd:	c6 44 24 08 00       	mov    BYTE PTR [rsp+0x8],0x0
  400dc2:	c6 44 24 0c 01       	mov    BYTE PTR [rsp+0xc],0x1
  400dc7:	31 c0                	xor    eax,eax
  400dc9:	8b 57 0c             	mov    edx,DWORD PTR [rdi+0xc]
  400dcc:	8b 4f 50             	mov    ecx,DWORD PTR [rdi+0x50]
  400dcf:	85 d2                	test   edx,edx
  400dd1:	74 08                	je     400ddb <top_step+0x4b>
  400dd3:	85 c9                	test   ecx,ecx
  400dd5:	0f 85 95 17 00 00    	jne    402570 <top_step+0x17e0>
  400ddb:	8b 77 44             	mov    esi,DWORD PTR [rdi+0x44]
  400dde:	85 f6                	test   esi,esi
  400de0:	89 74 24 04          	mov    DWORD PTR [rsp+0x4],esi
  400de4:	0f 8e e6 1c 00 00    	jle    402ad0 <top_step+0x1d40>
  400dea:	8b 77 14             	mov    esi,DWORD PTR [rdi+0x14]
  400ded:	31 db                	xor    ebx,ebx
  400def:	85 f6                	test   esi,esi
  400df1:	40 0f 94 c6          	sete   sil
  400df5:	0f 95 c3             	setne  bl
  400df8:	40 0f b6 f6          	movzx  esi,sil
  400dfc:	89 5c 24 98          	mov    DWORD PTR [rsp-0x68],ebx
  400e00:	89 74 24 4c          	mov    DWORD PTR [rsp+0x4c],esi
  400e04:	85 d2                	test   edx,edx
  400e06:	44 8b 4f 4c          	mov    r9d,DWORD PTR [rdi+0x4c]
  400e0a:	0f 95 44 24 25       	setne  BYTE PTR [rsp+0x25]
  400e0f:	85 c9                	test   ecx,ecx
  400e11:	0f b6 5c 24 25       	movzx  ebx,BYTE PTR [rsp+0x25]
  400e16:	0f 94 44 24 b4       	sete   BYTE PTR [rsp-0x4c]
  400e1b:	83 7c 24 04 01       	cmp    DWORD PTR [rsp+0x4],0x1
  400e20:	0f b6 74 24 b4       	movzx  esi,BYTE PTR [rsp-0x4c]
  400e25:	0f 94 c2             	sete   dl
  400e28:	31 c9                	xor    ecx,ecx
  400e2a:	21 da                	and    edx,ebx
  400e2c:	21 f2                	and    edx,esi
  400e2e:	41 83 f9 02          	cmp    r9d,0x2
  400e32:	88 54 24 8f          	mov    BYTE PTR [rsp-0x71],dl
  400e36:	8b 57 10             	mov    edx,DWORD PTR [rdi+0x10]
  400e39:	0f 9f c1             	setg   cl
  400e3c:	09 d1                	or     ecx,edx
  400e3e:	41 83 f9 02          	cmp    r9d,0x2
  400e42:	89 cd                	mov    ebp,ecx
  400e44:	0f 8e 8e 16 00 00    	jle    4024d8 <top_step+0x1748>
  400e4a:	41 83 f9 04          	cmp    r9d,0x4
  400e4e:	0f 85 60 1d 00 00    	jne    402bb4 <top_step+0x1e24>
  400e54:	c6 44 24 10 00       	mov    BYTE PTR [rsp+0x10],0x0
  400e59:	c6 44 24 34 00       	mov    BYTE PTR [rsp+0x34],0x0
  400e5e:	41 ba 01 00 00 00    	mov    r10d,0x1
  400e64:	c6 44 24 38 01       	mov    BYTE PTR [rsp+0x38],0x1
  400e69:	c7 44 24 ac 02 00 00 	mov    DWORD PTR [rsp-0x54],0x2
  400e70:	00 
  400e71:	c7 44 24 d4 00 00 00 	mov    DWORD PTR [rsp-0x2c],0x0
  400e78:	00 
  400e79:	45 85 e4             	test   r12d,r12d
  400e7c:	0f 85 96 15 00 00    	jne    402418 <top_step+0x1688>
  400e82:	8b 8f d4 00 00 00    	mov    ecx,DWORD PTR [rdi+0xd4]
  400e88:	85 c9                	test   ecx,ecx
  400e8a:	0f 95 c1             	setne  cl
  400e8d:	22 4c 24 08          	and    cl,BYTE PTR [rsp+0x8]
  400e91:	80 f9 01             	cmp    cl,0x1
  400e94:	0f b6 f1             	movzx  esi,cl
  400e97:	88 4c 24 e8          	mov    BYTE PTR [rsp-0x18],cl
  400e9b:	89 74 24 28          	mov    DWORD PTR [rsp+0x28],esi
  400e9f:	19 f6                	sbb    esi,esi
  400ea1:	83 c6 03             	add    esi,0x3
  400ea4:	45 85 ff             	test   r15d,r15d
  400ea7:	89 74 24 30          	mov    DWORD PTR [rsp+0x30],esi
  400eab:	8b 77 1c             	mov    esi,DWORD PTR [rdi+0x1c]
  400eae:	0f 94 c1             	sete   cl
  400eb1:	85 ed                	test   ebp,ebp
  400eb3:	89 74 24 a8          	mov    DWORD PTR [rsp-0x58],esi
  400eb7:	0f 85 9b 16 00 00    	jne    402558 <top_step+0x17c8>
  400ebd:	22 4c 24 e8          	and    cl,BYTE PTR [rsp-0x18]
  400ec1:	8b 74 24 a8          	mov    esi,DWORD PTR [rsp-0x58]
  400ec5:	89 74 24 5c          	mov    DWORD PTR [rsp+0x5c],esi
  400ec9:	0f b6 c9             	movzx  ecx,cl
  400ecc:	44 8b 6c 24 a4       	mov    r13d,DWORD PTR [rsp-0x5c]
  400ed1:	8b b7 a4 00 00 00    	mov    esi,DWORD PTR [rdi+0xa4]
  400ed7:	89 4c 24 3c          	mov    DWORD PTR [rsp+0x3c],ecx
  400edb:	45 85 ed             	test   r13d,r13d
  400ede:	89 74 24 e4          	mov    DWORD PTR [rsp-0x1c],esi
  400ee2:	0f 84 77 15 00 00    	je     40245f <top_step+0x16cf>
  400ee8:	8b 77 54             	mov    esi,DWORD PTR [rdi+0x54]
  400eeb:	39 77 40             	cmp    DWORD PTR [rdi+0x40],esi
  400eee:	40 0f 9e c6          	setle  sil
  400ef2:	83 7f 3c 01          	cmp    DWORD PTR [rdi+0x3c],0x1
  400ef6:	0f 9e c1             	setle  cl
  400ef9:	09 ce                	or     esi,ecx
  400efb:	45 85 e4             	test   r12d,r12d
  400efe:	40 88 74 24 24       	mov    BYTE PTR [rsp+0x24],sil
  400f03:	0f 85 07 16 00 00    	jne    402510 <top_step+0x1780>
  400f09:	41 b8 01 00 00 00    	mov    r8d,0x1
  400f0f:	c7 44 24 e4 00 00 00 	mov    DWORD PTR [rsp-0x1c],0x0
  400f16:	00 
  400f17:	45 31 ed             	xor    r13d,r13d
  400f1a:	41 83 f9 02          	cmp    r9d,0x2
  400f1e:	8b 5c 24 a4          	mov    ebx,DWORD PTR [rsp-0x5c]
  400f22:	40 0f 9e c6          	setle  sil
  400f26:	40 22 74 24 25       	and    sil,BYTE PTR [rsp+0x25]
  400f2b:	85 d2                	test   edx,edx
  400f2d:	0f 94 c2             	sete   dl
  400f30:	21 f2                	and    edx,esi
  400f32:	85 db                	test   ebx,ebx
  400f34:	40 0f b6 ce          	movzx  ecx,sil
  400f38:	88 54 24 26          	mov    BYTE PTR [rsp+0x26],dl
  400f3c:	8b 97 8c 00 00 00    	mov    edx,DWORD PTR [rdi+0x8c]
  400f42:	89 54 24 c0          	mov    DWORD PTR [rsp-0x40],edx
  400f46:	0f 84 81 1c 00 00    	je     402bcd <top_step+0x1e3d>
  400f4c:	ba ff ff ff ff       	mov    edx,0xffffffff
  400f51:	c7 04 24 fe ff ff ff 	mov    DWORD PTR [rsp],0xfffffffe
  400f58:	c7 44 24 c0 00 00 00 	mov    DWORD PTR [rsp-0x40],0x0
  400f5f:	00 
  400f60:	89 54 24 60          	mov    DWORD PTR [rsp+0x60],edx
  400f64:	89 54 24 64          	mov    DWORD PTR [rsp+0x64],edx
  400f68:	c7 44 24 bc 00 00 00 	mov    DWORD PTR [rsp-0x44],0x0
  400f6f:	00 
  400f70:	8b 54 24 bc          	mov    edx,DWORD PTR [rsp-0x44]
  400f74:	41 83 f9 02          	cmp    r9d,0x2
  400f78:	be 02 00 00 00       	mov    esi,0x2
  400f7d:	0f 4e f2             	cmovle esi,edx
  400f80:	85 c9                	test   ecx,ecx
  400f82:	0f 85 d8 16 00 00    	jne    402660 <top_step+0x18d0>
  400f88:	83 fa 02             	cmp    edx,0x2
  400f8b:	0f 84 37 19 00 00    	je     4028c8 <top_step+0x1b38>
  400f91:	83 7c 24 bc 01       	cmp    DWORD PTR [rsp-0x44],0x1
  400f96:	0f 84 31 19 00 00    	je     4028cd <top_step+0x1b3d>
  400f9c:	8b 74 24 bc          	mov    esi,DWORD PTR [rsp-0x44]
  400fa0:	83 fe 02             	cmp    esi,0x2
  400fa3:	0f 94 c2             	sete   dl
  400fa6:	41 21 d2             	and    r10d,edx
  400fa9:	44 88 54 24 56       	mov    BYTE PTR [rsp+0x56],r10b
  400fae:	20 54 24 10          	and    BYTE PTR [rsp+0x10],dl
  400fb2:	44 8b 57 48          	mov    r10d,DWORD PTR [rdi+0x48]
  400fb6:	31 d2                	xor    edx,edx
  400fb8:	45 85 e4             	test   r12d,r12d
  400fbb:	75 06                	jne    400fc3 <top_step+0x233>
  400fbd:	8b 97 84 00 00 00    	mov    edx,DWORD PTR [rdi+0x84]
  400fc3:	8b 5c 24 a4          	mov    ebx,DWORD PTR [rsp-0x5c]
  400fc7:	b9 00 00 00 00       	mov    ecx,0x0
  400fcc:	85 db                	test   ebx,ebx
  400fce:	0f 45 d1             	cmovne edx,ecx
  400fd1:	83 3c 24 01          	cmp    DWORD PTR [rsp],0x1
  400fd5:	76 09                	jbe    400fe0 <top_step+0x250>
  400fd7:	83 7c 24 c0 01       	cmp    DWORD PTR [rsp-0x40],0x1
  400fdc:	44 0f 45 d2          	cmovne r10d,edx
  400fe0:	80 7c 24 26 00       	cmp    BYTE PTR [rsp+0x26],0x0
  400fe5:	44 0f 45 54 24 a8    	cmovne r10d,DWORD PTR [rsp-0x58]
  400feb:	45 85 e4             	test   r12d,r12d
  400fee:	0f 85 1c 16 00 00    	jne    402610 <top_step+0x1880>
  400ff4:	44 8b 5c 24 a4       	mov    r11d,DWORD PTR [rsp-0x5c]
  400ff9:	8b 8f ac 00 00 00    	mov    ecx,DWORD PTR [rdi+0xac]
  400fff:	45 85 db             	test   r11d,r11d
  401002:	89 4c 24 b0          	mov    DWORD PTR [rsp-0x50],ecx
  401006:	0f 85 a4 1a 00 00    	jne    402ab0 <top_step+0x1d20>
  40100c:	8d 59 ff             	lea    ebx,[rcx-0x1]
  40100f:	83 e9 02             	sub    ecx,0x2
  401012:	89 4c 24 f8          	mov    DWORD PTR [rsp-0x8],ecx
  401016:	89 5c 24 58          	mov    DWORD PTR [rsp+0x58],ebx
  40101a:	44 8b 5c 24 a4       	mov    r11d,DWORD PTR [rsp-0x5c]
  40101f:	8b 8f dc 00 00 00    	mov    ecx,DWORD PTR [rdi+0xdc]
  401025:	45 85 db             	test   r11d,r11d
  401028:	89 4c 24 9c          	mov    DWORD PTR [rsp-0x64],ecx
  40102c:	0f 85 a7 15 00 00    	jne    4025d9 <top_step+0x1849>
  401032:	8b 9f e4 00 00 00    	mov    ebx,DWORD PTR [rdi+0xe4]
  401038:	83 f9 01             	cmp    ecx,0x1
  40103b:	41 89 db             	mov    r11d,ebx
  40103e:	89 5c 24 cc          	mov    DWORD PTR [rsp-0x34],ebx
  401042:	89 cb                	mov    ebx,ecx
  401044:	0f 94 c1             	sete   cl
  401047:	83 eb 01             	sub    ebx,0x1
  40104a:	89 5c 24 44          	mov    DWORD PTR [rsp+0x44],ebx
  40104e:	44 89 db             	mov    ebx,r11d
  401051:	0f b6 c9             	movzx  ecx,cl
  401054:	83 c3 01             	add    ebx,0x1
  401057:	89 4c 24 e0          	mov    DWORD PTR [rsp-0x20],ecx
  40105b:	89 5c 24 20          	mov    DWORD PTR [rsp+0x20],ebx
  40105f:	44 8b 5f 2c          	mov    r11d,DWORD PTR [rdi+0x2c]
  401063:	41 83 f9 02          	cmp    r9d,0x2
  401067:	c7 44 24 d8 00 00 00 	mov    DWORD PTR [rsp-0x28],0x0
  40106e:	00 
  40106f:	0f 94 c1             	sete   cl
  401072:	41 83 eb 01          	sub    r11d,0x1
  401076:	44 39 5c 24 cc       	cmp    DWORD PTR [rsp-0x34],r11d
  40107b:	41 0f 9d c3          	setge  r11b
  40107f:	41 08 cb             	or     r11b,cl
  401082:	44 88 5c 24 57       	mov    BYTE PTR [rsp+0x57],r11b
  401087:	41 bb 03 00 00 00    	mov    r11d,0x3
  40108d:	44 0f 44 5c 24 9c    	cmove  r11d,DWORD PTR [rsp-0x64]
  401093:	41 83 f9 01          	cmp    r9d,0x1
  401097:	44 8b 4f 18          	mov    r9d,DWORD PTR [rdi+0x18]
  40109b:	0f 9e 44 24 90       	setle  BYTE PTR [rsp-0x70]
  4010a0:	44 89 5c 24 a0       	mov    DWORD PTR [rsp-0x60],r11d
  4010a5:	44 0f b6 5c 24 90    	movzx  r11d,BYTE PTR [rsp-0x70]
  4010ab:	45 85 c9             	test   r9d,r9d
  4010ae:	41 0f 95 c1          	setne  r9b
  4010b2:	45 21 d9             	and    r9d,r11d
  4010b5:	45 85 e4             	test   r12d,r12d
  4010b8:	75 0a                	jne    4010c4 <top_step+0x334>
  4010ba:	8b 9f f4 00 00 00    	mov    ebx,DWORD PTR [rdi+0xf4]
  4010c0:	89 5c 24 d8          	mov    DWORD PTR [rsp-0x28],ebx
  4010c4:	8b 5c 24 a4          	mov    ebx,DWORD PTR [rsp-0x5c]
  4010c8:	85 db                	test   ebx,ebx
  4010ca:	0f 85 d8 14 00 00    	jne    4025a8 <top_step+0x1818>
  4010d0:	8b 5c 24 d8          	mov    ebx,DWORD PTR [rsp-0x28]
  4010d4:	83 c3 01             	add    ebx,0x1
  4010d7:	89 5c 24 50          	mov    DWORD PTR [rsp+0x50],ebx
  4010db:	44 8b 5c 24 d8       	mov    r11d,DWORD PTR [rsp-0x28]
  4010e0:	44 3b 5f 34          	cmp    r11d,DWORD PTR [rdi+0x34]
  4010e4:	c7 44 24 b8 00 00 00 	mov    DWORD PTR [rsp-0x48],0x0
  4010eb:	00 
  4010ec:	41 0f 9c c3          	setl   r11b
  4010f0:	45 20 cb             	and    r11b,r9b
  4010f3:	41 b9 01 00 00 00    	mov    r9d,0x1
  4010f9:	44 0f 44 4c 24 9c    	cmove  r9d,DWORD PTR [rsp-0x64]
  4010ff:	45 85 e4             	test   r12d,r12d
  401102:	44 88 5c 24 54       	mov    BYTE PTR [rsp+0x54],r11b
  401107:	44 89 4c 24 d0       	mov    DWORD PTR [rsp-0x30],r9d
  40110c:	75 0a                	jne    401118 <top_step+0x388>
  40110e:	8b 9f ec 00 00 00    	mov    ebx,DWORD PTR [rdi+0xec]
  401114:	89 5c 24 b8          	mov    DWORD PTR [rsp-0x48],ebx
  401118:	44 8b 5c 24 a4       	mov    r11d,DWORD PTR [rsp-0x5c]
  40111d:	45 85 db             	test   r11d,r11d
  401120:	0f 85 6a 14 00 00    	jne    402590 <top_step+0x1800>
  401126:	8b 5c 24 b8          	mov    ebx,DWORD PTR [rsp-0x48]
  40112a:	83 c3 01             	add    ebx,0x1
  40112d:	89 5c 24 c4          	mov    DWORD PTR [rsp-0x3c],ebx
  401131:	44 8b 4f 30          	mov    r9d,DWORD PTR [rdi+0x30]
  401135:	44 8b 5c 24 9c       	mov    r11d,DWORD PTR [rsp-0x64]
  40113a:	41 83 e9 01          	sub    r9d,0x1
  40113e:	44 39 4c 24 b8       	cmp    DWORD PTR [rsp-0x48],r9d
  401143:	44 89 4c 24 2c       	mov    DWORD PTR [rsp+0x2c],r9d
  401148:	41 b9 02 00 00 00    	mov    r9d,0x2
  40114e:	45 0f 4c cb          	cmovl  r9d,r11d
  401152:	41 83 fb 03          	cmp    r11d,0x3
  401156:	0f 84 04 18 00 00    	je     402960 <top_step+0x1bd0>
  40115c:	41 83 fb 02          	cmp    r11d,0x2
  401160:	74 10                	je     401172 <top_step+0x3e2>
  401162:	8b 5c 24 a0          	mov    ebx,DWORD PTR [rsp-0x60]
  401166:	41 83 fb 01          	cmp    r11d,0x1
  40116a:	41 0f 45 db          	cmovne ebx,r11d
  40116e:	89 5c 24 d0          	mov    DWORD PTR [rsp-0x30],ebx
  401172:	45 85 e4             	test   r12d,r12d
  401175:	0f 85 8d 15 00 00    	jne    402708 <top_step+0x1978>
  40117b:	8b 5c 24 a4          	mov    ebx,DWORD PTR [rsp-0x5c]
  40117f:	45 89 e1             	mov    r9d,r12d
  401182:	85 db                	test   ebx,ebx
  401184:	44 0f 44 8f cc 00 00 	cmove  r9d,DWORD PTR [rdi+0xcc]
  40118b:	00 
  40118c:	44 89 4c 24 a0       	mov    DWORD PTR [rsp-0x60],r9d
  401191:	44 8b 8f b4 00 00 00 	mov    r9d,DWORD PTR [rdi+0xb4]
  401198:	45 85 c9             	test   r9d,r9d
  40119b:	41 0f 95 c3          	setne  r11b
  40119f:	44 22 5c 24 08       	and    r11b,BYTE PTR [rsp+0x8]
  4011a4:	45 0f b6 cb          	movzx  r9d,r11b
  4011a8:	44 88 5c 24 40       	mov    BYTE PTR [rsp+0x40],r11b
  4011ad:	44 89 4c 24 c8       	mov    DWORD PTR [rsp-0x38],r9d
  4011b2:	44 0f b6 4c 24 90    	movzx  r9d,BYTE PTR [rsp-0x70]
  4011b8:	45 20 d9             	and    r9b,r11b
  4011bb:	44 8b 9f c4 00 00 00 	mov    r11d,DWORD PTR [rdi+0xc4]
  4011c2:	44 88 4c 24 55       	mov    BYTE PTR [rsp+0x55],r9b
  4011c7:	41 b9 02 00 00 00    	mov    r9d,0x2
  4011cd:	44 0f 44 4c 24 a0    	cmove  r9d,DWORD PTR [rsp-0x60]
  4011d3:	85 db                	test   ebx,ebx
  4011d5:	44 89 5c 24 dc       	mov    DWORD PTR [rsp-0x24],r11d
  4011da:	44 89 4c 24 fc       	mov    DWORD PTR [rsp-0x4],r9d
  4011df:	0f 84 5b 15 00 00    	je     402740 <top_step+0x19b0>
  4011e5:	c7 44 24 48 01 00 00 	mov    DWORD PTR [rsp+0x48],0x1
  4011ec:	00 
  4011ed:	c7 44 24 dc 00 00 00 	mov    DWORD PTR [rsp-0x24],0x0
  4011f4:	00 
  4011f5:	8b 5f 24             	mov    ebx,DWORD PTR [rdi+0x24]
  4011f8:	44 8d 4b ff          	lea    r9d,[rbx-0x1]
  4011fc:	44 39 4c 24 dc       	cmp    DWORD PTR [rsp-0x24],r9d
  401201:	41 0f 9d c1          	setge  r9b
  401205:	41 08 c9             	or     r9b,cl
  401208:	44 88 4c 24 27       	mov    BYTE PTR [rsp+0x27],r9b
  40120d:	0f 84 c5 14 00 00    	je     4026d8 <top_step+0x1948>
  401213:	83 7c 24 a0 02       	cmp    DWORD PTR [rsp-0x60],0x2
  401218:	0f 84 6a 19 00 00    	je     402b88 <top_step+0x1df8>
  40121e:	83 7c 24 a0 01       	cmp    DWORD PTR [rsp-0x60],0x1
  401223:	0f 84 67 17 00 00    	je     402990 <top_step+0x1c00>
  401229:	8b 4c 24 a0          	mov    ecx,DWORD PTR [rsp-0x60]
  40122d:	89 4c 24 fc          	mov    DWORD PTR [rsp-0x4],ecx
  401231:	8b 4c 24 a8          	mov    ecx,DWORD PTR [rsp-0x58]
  401235:	83 7c 24 d0 01       	cmp    DWORD PTR [rsp-0x30],0x1
  40123a:	0f 84 b9 14 00 00    	je     4026f9 <top_step+0x1969>
  401240:	83 7c 24 f8 01       	cmp    DWORD PTR [rsp-0x8],0x1
  401245:	76 08                	jbe    40124f <top_step+0x4bf>
  401247:	83 7c 24 b0 01       	cmp    DWORD PTR [rsp-0x50],0x1
  40124c:	0f 45 ca             	cmovne ecx,edx
  40124f:	85 ed                	test   ebp,ebp
  401251:	0f 45 4c 24 d4       	cmovne ecx,DWORD PTR [rsp-0x2c]
  401256:	41 83 fd 02          	cmp    r13d,0x2
  40125a:	74 0a                	je     401266 <top_step+0x4d6>
  40125c:	41 83 fd 01          	cmp    r13d,0x1
  401260:	44 89 d1             	mov    ecx,r10d
  401263:	0f 45 ca             	cmovne ecx,edx
  401266:	45 31 c9             	xor    r9d,r9d
  401269:	80 7c 24 24 00       	cmp    BYTE PTR [rsp+0x24],0x0
  40126e:	44 8b 54 24 98       	mov    r10d,DWORD PTR [rsp-0x68]
  401273:	44 8b 5c 24 04       	mov    r11d,DWORD PTR [rsp+0x4]
  401278:	41 0f 45 c9          	cmovne ecx,r9d
  40127c:	80 7c 24 8f 00       	cmp    BYTE PTR [rsp-0x71],0x0
  401281:	0f 45 4c 24 5c       	cmovne ecx,DWORD PTR [rsp+0x5c]
  401286:	45 85 d2             	test   r10d,r10d
  401289:	4c 8b 57 10          	mov    r10,QWORD PTR [rdi+0x10]
  40128d:	4c 89 d3             	mov    rbx,r10
  401290:	4c 89 54 24 90       	mov    QWORD PTR [rsp-0x70],r10
  401295:	41 0f 45 c9          	cmovne ecx,r9d
  401299:	45 85 db             	test   r11d,r11d
  40129c:	44 8b 5c 24 d4       	mov    r11d,DWORD PTR [rsp-0x2c]
  4012a1:	41 0f 9f c2          	setg   r10b
  4012a5:	44 22 54 24 25       	and    r10b,BYTE PTR [rsp+0x25]
  4012aa:	85 ed                	test   ebp,ebp
  4012ac:	44 0f 44 5c 24 a8    	cmove  r11d,DWORD PTR [rsp-0x58]
  4012b2:	44 22 54 24 b4       	and    r10b,BYTE PTR [rsp-0x4c]
  4012b7:	45 0f 44 d9          	cmove  r11d,r9d
  4012bb:	48 85 db             	test   rbx,rbx
  4012be:	44 88 54 24 25       	mov    BYTE PTR [rsp+0x25],r10b
  4012c3:	45 0f 44 cb          	cmove  r9d,r11d
  4012c7:	83 f8 02             	cmp    eax,0x2
  4012ca:	44 89 4c 24 a8       	mov    DWORD PTR [rsp-0x58],r9d
  4012cf:	74 0a                	je     4012db <top_step+0x54b>
  4012d1:	83 f8 01             	cmp    eax,0x1
  4012d4:	0f 45 ca             	cmovne ecx,edx
  4012d7:	89 4c 24 a8          	mov    DWORD PTR [rsp-0x58],ecx
  4012db:	44 8b 54 24 a8       	mov    r10d,DWORD PTR [rsp-0x58]
  4012e0:	31 c9                	xor    ecx,ecx
  4012e2:	45 85 ff             	test   r15d,r15d
  4012e5:	44 0f 44 d1          	cmove  r10d,ecx
  4012e9:	41 83 fe 02          	cmp    r14d,0x2
  4012ed:	44 89 54 24 a8       	mov    DWORD PTR [rsp-0x58],r10d
  4012f2:	0f 84 88 16 00 00    	je     402980 <top_step+0x1bf0>
  4012f8:	41 83 fe 01          	cmp    r14d,0x1
  4012fc:	74 0a                	je     401308 <top_step+0x578>
  4012fe:	45 85 f6             	test   r14d,r14d
  401301:	0f 45 ca             	cmovne ecx,edx
  401304:	89 4c 24 a8          	mov    DWORD PTR [rsp-0x58],ecx
  401308:	8b 54 24 a8          	mov    edx,DWORD PTR [rsp-0x58]
  40130c:	44 8b 4c 24 10       	mov    r9d,DWORD PTR [rsp+0x10]
  401311:	b9 06 00 00 00       	mov    ecx,0x6
  401316:	41 bb 02 00 00 00    	mov    r11d,0x2
  40131c:	89 57 58             	mov    DWORD PTR [rdi+0x58],edx
  40131f:	8b 54 24 34          	mov    edx,DWORD PTR [rsp+0x34]
  401323:	c1 e2 1f             	shl    edx,0x1f
  401326:	c1 fa 1f             	sar    edx,0x1f
  401329:	83 c2 08             	add    edx,0x8
  40132c:	80 7c 24 38 00       	cmp    BYTE PTR [rsp+0x38],0x0
  401331:	0f 45 d1             	cmovne edx,ecx
  401334:	85 ed                	test   ebp,ebp
  401336:	44 0f 45 da          	cmovne r11d,edx
  40133a:	41 c1 e1 1f          	shl    r9d,0x1f
  40133e:	41 c1 f9 1f          	sar    r9d,0x1f
  401342:	41 83 c1 08          	add    r9d,0x8
  401346:	80 7c 24 56 00       	cmp    BYTE PTR [rsp+0x56],0x0
  40134b:	44 0f 45 c9          	cmovne r9d,ecx
  40134f:	45 31 d2             	xor    r10d,r10d
  401352:	45 85 e4             	test   r12d,r12d
  401355:	75 04                	jne    40135b <top_step+0x5cb>
  401357:	44 8b 57 7c          	mov    r10d,DWORD PTR [rdi+0x7c]
  40135b:	8b 4c 24 a4          	mov    ecx,DWORD PTR [rsp-0x5c]
  40135f:	85 c9                	test   ecx,ecx
  401361:	b9 00 00 00 00       	mov    ecx,0x0
  401366:	44 0f 45 d1          	cmovne r10d,ecx
  40136a:	83 3c 24 01          	cmp    DWORD PTR [rsp],0x1
  40136e:	76 09                	jbe    401379 <top_step+0x5e9>
  401370:	83 7c 24 c0 01       	cmp    DWORD PTR [rsp-0x40],0x1
  401375:	45 0f 45 ca          	cmovne r9d,r10d
  401379:	80 7c 24 26 00       	cmp    BYTE PTR [rsp+0x26],0x0
  40137e:	b9 02 00 00 00       	mov    ecx,0x2
  401383:	bb 04 00 00 00       	mov    ebx,0x4
  401388:	44 0f 45 c9          	cmovne r9d,ecx
  40138c:	31 c9                	xor    ecx,ecx
  40138e:	83 7c 24 fc 02       	cmp    DWORD PTR [rsp-0x4],0x2
  401393:	0f 94 c1             	sete   cl
  401396:	83 c1 02             	add    ecx,0x2
  401399:	83 7c 24 d0 01       	cmp    DWORD PTR [rsp-0x30],0x1
  40139e:	0f 44 cb             	cmove  ecx,ebx
  4013a1:	83 7c 24 f8 01       	cmp    DWORD PTR [rsp-0x8],0x1
  4013a6:	76 09                	jbe    4013b1 <top_step+0x621>
  4013a8:	83 7c 24 b0 01       	cmp    DWORD PTR [rsp-0x50],0x1
  4013ad:	41 0f 45 ca          	cmovne ecx,r10d
  4013b1:	85 ed                	test   ebp,ebp
  4013b3:	0f 45 ca             	cmovne ecx,edx
  4013b6:	41 83 fd 02          	cmp    r13d,0x2
  4013ba:	74 0b                	je     4013c7 <top_step+0x637>
  4013bc:	41 83 fd 01          	cmp    r13d,0x1
  4013c0:	44 89 c9             	mov    ecx,r9d
  4013c3:	41 0f 45 ca          	cmovne ecx,r10d
  4013c7:	80 7c 24 24 00       	cmp    BYTE PTR [rsp+0x24],0x0
  4013cc:	41 b9 01 00 00 00    	mov    r9d,0x1
  4013d2:	8b 5c 24 98          	mov    ebx,DWORD PTR [rsp-0x68]
  4013d6:	41 0f 45 c9          	cmovne ecx,r9d
  4013da:	80 7c 24 8f 00       	cmp    BYTE PTR [rsp-0x71],0x0
  4013df:	41 0f 45 cb          	cmovne ecx,r11d
  4013e3:	85 db                	test   ebx,ebx
  4013e5:	41 bb 02 00 00 00    	mov    r11d,0x2
  4013eb:	41 0f 45 c9          	cmovne ecx,r9d
  4013ef:	85 ed                	test   ebp,ebp
  4013f1:	41 0f 44 d3          	cmove  edx,r11d
  4013f5:	80 7c 24 25 00       	cmp    BYTE PTR [rsp+0x25],0x0
  4013fa:	41 0f 44 d1          	cmove  edx,r9d
  4013fe:	48 83 7c 24 90 00    	cmp    QWORD PTR [rsp-0x70],0x0
  401404:	41 0f 45 d1          	cmovne edx,r9d
  401408:	83 f8 02             	cmp    eax,0x2
  40140b:	74 09                	je     401416 <top_step+0x686>
  40140d:	83 f8 01             	cmp    eax,0x1
  401410:	89 ca                	mov    edx,ecx
  401412:	41 0f 45 d2          	cmovne edx,r10d
  401416:	41 83 ff 01          	cmp    r15d,0x1
  40141a:	19 c9                	sbb    ecx,ecx
  40141c:	83 c1 01             	add    ecx,0x1
  40141f:	45 85 ff             	test   r15d,r15d
  401422:	41 89 cb             	mov    r11d,ecx
  401425:	89 4c 24 04          	mov    DWORD PTR [rsp+0x4],ecx
  401429:	b9 00 00 00 00       	mov    ecx,0x0
  40142e:	0f 44 d1             	cmove  edx,ecx
  401431:	41 83 fe 02          	cmp    r14d,0x2
  401435:	74 16                	je     40144d <top_step+0x6bd>
  401437:	41 83 fe 01          	cmp    r14d,0x1
  40143b:	0f 84 2f 15 00 00    	je     402970 <top_step+0x1be0>
  401441:	45 85 f6             	test   r14d,r14d
  401444:	45 0f 44 d3          	cmove  r10d,r11d
  401448:	44 89 54 24 04       	mov    DWORD PTR [rsp+0x4],r10d
  40144d:	8b 5c 24 04          	mov    ebx,DWORD PTR [rsp+0x4]
  401451:	45 85 e4             	test   r12d,r12d
  401454:	89 5f 5c             	mov    DWORD PTR [rdi+0x5c],ebx
  401457:	0f 85 63 12 00 00    	jne    4026c0 <top_step+0x1930>
  40145d:	44 8b 5f 74          	mov    r11d,DWORD PTR [rdi+0x74]
  401461:	44 0f b6 4c 24 0c    	movzx  r9d,BYTE PTR [rsp+0xc]
  401467:	45 85 db             	test   r11d,r11d
  40146a:	0f 95 c1             	setne  cl
  40146d:	22 4c 24 08          	and    cl,BYTE PTR [rsp+0x8]
  401471:	89 ca                	mov    edx,ecx
  401473:	41 21 c9             	and    r9d,ecx
  401476:	83 e2 01             	and    edx,0x1
  401479:	45 0f b6 c9          	movzx  r9d,r9b
  40147d:	89 54 24 d4          	mov    DWORD PTR [rsp-0x2c],edx
  401481:	48 83 7c 24 90 00    	cmp    QWORD PTR [rsp-0x70],0x0
  401487:	8b 54 24 d4          	mov    edx,DWORD PTR [rsp-0x2c]
  40148b:	75 07                	jne    401494 <top_step+0x704>
  40148d:	0a 4c 24 25          	or     cl,BYTE PTR [rsp+0x25]
  401491:	0f b6 d1             	movzx  edx,cl
  401494:	83 f8 02             	cmp    eax,0x2
  401497:	0f 45 54 24 d4       	cmovne edx,DWORD PTR [rsp-0x2c]
  40149c:	45 85 ff             	test   r15d,r15d
  40149f:	74 08                	je     4014a9 <top_step+0x719>
  4014a1:	22 54 24 0c          	and    dl,BYTE PTR [rsp+0xc]
  4014a5:	44 0f b6 ca          	movzx  r9d,dl
  4014a9:	41 83 fe 01          	cmp    r14d,0x1
  4014ad:	0f 84 e2 11 00 00    	je     402695 <top_step+0x1905>
  4014b3:	45 85 f6             	test   r14d,r14d
  4014b6:	0f 85 d4 11 00 00    	jne    402690 <top_step+0x1900>
  4014bc:	8b 5c 24 d4          	mov    ebx,DWORD PTR [rsp-0x2c]
  4014c0:	83 f8 01             	cmp    eax,0x1
  4014c3:	89 5f 60             	mov    DWORD PTR [rdi+0x60],ebx
  4014c6:	0f 84 de 11 00 00    	je     4026aa <top_step+0x191a>
  4014cc:	83 f8 02             	cmp    eax,0x2
  4014cf:	89 44 24 b4          	mov    DWORD PTR [rsp-0x4c],eax
  4014d3:	0f 95 44 24 5c       	setne  BYTE PTR [rsp+0x5c]
  4014d8:	31 d2                	xor    edx,edx
  4014da:	45 85 e4             	test   r12d,r12d
  4014dd:	75 03                	jne    4014e2 <top_step+0x752>
  4014df:	8b 57 6c             	mov    edx,DWORD PTR [rdi+0x6c]
  4014e2:	8b 5c 24 a4          	mov    ebx,DWORD PTR [rsp-0x5c]
  4014e6:	b9 00 00 00 00       	mov    ecx,0x0
  4014eb:	44 8b 54 24 98       	mov    r10d,DWORD PTR [rsp-0x68]
  4014f0:	85 db                	test   ebx,ebx
  4014f2:	0f 45 d1             	cmovne edx,ecx
  4014f5:	83 7c 24 b4 02       	cmp    DWORD PTR [rsp-0x4c],0x2
  4014fa:	b9 01 00 00 00       	mov    ecx,0x1
  4014ff:	41 89 cb             	mov    r11d,ecx
  401502:	41 89 c9             	mov    r9d,ecx
  401505:	44 0f 45 da          	cmovne r11d,edx
  401509:	80 7c 24 24 00       	cmp    BYTE PTR [rsp+0x24],0x0
  40150e:	44 0f 44 ca          	cmove  r9d,edx
  401512:	80 7c 24 8f 00       	cmp    BYTE PTR [rsp-0x71],0x0
  401517:	44 0f 45 c9          	cmovne r9d,ecx
  40151b:	45 85 d2             	test   r10d,r10d
  40151e:	41 89 ca             	mov    r10d,ecx
  401521:	44 0f 45 c9          	cmovne r9d,ecx
  401525:	80 7c 24 25 00       	cmp    BYTE PTR [rsp+0x25],0x0
  40152a:	44 0f 44 d2          	cmove  r10d,edx
  40152e:	48 83 7c 24 90 00    	cmp    QWORD PTR [rsp-0x70],0x0
  401534:	44 0f 45 d1          	cmovne r10d,ecx
  401538:	83 f8 02             	cmp    eax,0x2
  40153b:	74 0a                	je     401547 <top_step+0x7b7>
  40153d:	83 f8 01             	cmp    eax,0x1
  401540:	45 89 ca             	mov    r10d,r9d
  401543:	44 0f 45 d2          	cmovne r10d,edx
  401547:	45 85 ff             	test   r15d,r15d
  40154a:	b9 01 00 00 00       	mov    ecx,0x1
  40154f:	0f 44 ca             	cmove  ecx,edx
  401552:	45 0f 45 da          	cmovne r11d,r10d
  401556:	41 83 fe 02          	cmp    r14d,0x2
  40155a:	89 4c 24 08          	mov    DWORD PTR [rsp+0x8],ecx
  40155e:	74 14                	je     401574 <top_step+0x7e4>
  401560:	41 83 fe 01          	cmp    r14d,0x1
  401564:	0f 84 c6 13 00 00    	je     402930 <top_step+0x1ba0>
  40156a:	45 85 f6             	test   r14d,r14d
  40156d:	0f 44 d1             	cmove  edx,ecx
  401570:	89 54 24 08          	mov    DWORD PTR [rsp+0x8],edx
  401574:	83 7c 24 b4 02       	cmp    DWORD PTR [rsp-0x4c],0x2
  401579:	8b 54 24 e4          	mov    edx,DWORD PTR [rsp-0x1c]
  40157d:	41 b9 00 00 00 00    	mov    r9d,0x0
  401583:	8b 5c 24 08          	mov    ebx,DWORD PTR [rsp+0x8]
  401587:	44 0f 45 ca          	cmovne r9d,edx
  40158b:	83 7c 24 f8 01       	cmp    DWORD PTR [rsp-0x8],0x1
  401590:	89 5f 64             	mov    DWORD PTR [rdi+0x64],ebx
  401593:	76 09                	jbe    40159e <top_step+0x80e>
  401595:	83 7c 24 b0 01       	cmp    DWORD PTR [rsp-0x50],0x1
  40159a:	44 0f 45 c2          	cmovne r8d,edx
  40159e:	44 8b 54 24 e4       	mov    r10d,DWORD PTR [rsp-0x1c]
  4015a3:	85 ed                	test   ebp,ebp
  4015a5:	44 8b 5c 24 98       	mov    r11d,DWORD PTR [rsp-0x68]
  4015aa:	45 0f 45 c2          	cmovne r8d,r10d
  4015ae:	41 83 fd 02          	cmp    r13d,0x2
  4015b2:	44 89 d2             	mov    edx,r10d
  4015b5:	45 0f 45 c2          	cmovne r8d,r10d
  4015b9:	31 c9                	xor    ecx,ecx
  4015bb:	80 7c 24 24 00       	cmp    BYTE PTR [rsp+0x24],0x0
  4015c0:	44 0f 45 c1          	cmovne r8d,ecx
  4015c4:	80 7c 24 8f 00       	cmp    BYTE PTR [rsp-0x71],0x0
  4015c9:	44 0f 45 c1          	cmovne r8d,ecx
  4015cd:	45 85 db             	test   r11d,r11d
  4015d0:	44 0f 45 c1          	cmovne r8d,ecx
  4015d4:	80 7c 24 25 00       	cmp    BYTE PTR [rsp+0x25],0x0
  4015d9:	0f 45 d1             	cmovne edx,ecx
  4015dc:	48 83 7c 24 90 00    	cmp    QWORD PTR [rsp-0x70],0x0
  4015e2:	0f 45 d1             	cmovne edx,ecx
  4015e5:	83 f8 02             	cmp    eax,0x2
  4015e8:	74 0a                	je     4015f4 <top_step+0x864>
  4015ea:	83 f8 01             	cmp    eax,0x1
  4015ed:	44 89 c2             	mov    edx,r8d
  4015f0:	41 0f 45 d2          	cmovne edx,r10d
  4015f4:	44 8b 44 24 e4       	mov    r8d,DWORD PTR [rsp-0x1c]
  4015f9:	45 85 ff             	test   r15d,r15d
  4015fc:	b9 00 00 00 00       	mov    ecx,0x0
  401601:	41 0f 44 d1          	cmove  edx,r9d
  401605:	41 0f 44 c8          	cmove  ecx,r8d
  401609:	41 83 fe 02          	cmp    r14d,0x2
  40160d:	89 4c 24 0c          	mov    DWORD PTR [rsp+0xc],ecx
  401611:	74 16                	je     401629 <top_step+0x899>
  401613:	41 83 fe 01          	cmp    r14d,0x1
  401617:	0f 84 33 13 00 00    	je     402950 <top_step+0x1bc0>
  40161d:	45 85 f6             	test   r14d,r14d
  401620:	44 0f 44 c1          	cmove  r8d,ecx
  401624:	44 89 44 24 0c       	mov    DWORD PTR [rsp+0xc],r8d
  401629:	45 31 c9             	xor    r9d,r9d
  40162c:	83 7c 24 60 01       	cmp    DWORD PTR [rsp+0x60],0x1
  401631:	8b 5c 24 0c          	mov    ebx,DWORD PTR [rsp+0xc]
  401635:	89 5f 68             	mov    DWORD PTR [rdi+0x68],ebx
  401638:	76 0b                	jbe    401645 <top_step+0x8b5>
  40163a:	8b 54 24 c0          	mov    edx,DWORD PTR [rsp-0x40]
  40163e:	83 fa 03             	cmp    edx,0x3
  401641:	44 0f 45 ca          	cmovne r9d,edx
  401645:	8b 5c 24 c0          	mov    ebx,DWORD PTR [rsp-0x40]
  401649:	8b 4c 24 34          	mov    ecx,DWORD PTR [rsp+0x34]
  40164d:	41 83 fd 01          	cmp    r13d,0x1
  401651:	41 ba 01 00 00 00    	mov    r10d,0x1
  401657:	41 89 d8             	mov    r8d,ebx
  40165a:	41 89 db             	mov    r11d,ebx
  40165d:	45 0f 44 c1          	cmove  r8d,r9d
  401661:	83 f8 01             	cmp    eax,0x1
  401664:	45 0f 44 d8          	cmove  r11d,r8d
  401668:	c1 e1 1f             	shl    ecx,0x1f
  40166b:	c1 f9 1f             	sar    ecx,0x1f
  40166e:	83 c1 03             	add    ecx,0x3
  401671:	80 7c 24 38 00       	cmp    BYTE PTR [rsp+0x38],0x0
  401676:	41 0f 45 ca          	cmovne ecx,r10d
  40167a:	85 ed                	test   ebp,ebp
  40167c:	89 ca                	mov    edx,ecx
  40167e:	41 0f 44 d0          	cmove  edx,r8d
  401682:	89 54 24 e4          	mov    DWORD PTR [rsp-0x1c],edx
  401686:	8b 54 24 10          	mov    edx,DWORD PTR [rsp+0x10]
  40168a:	c1 e2 1f             	shl    edx,0x1f
  40168d:	c1 fa 1f             	sar    edx,0x1f
  401690:	83 c2 03             	add    edx,0x3
  401693:	80 7c 24 56 00       	cmp    BYTE PTR [rsp+0x56],0x0
  401698:	41 0f 45 d2          	cmovne edx,r10d
  40169c:	83 3c 24 01          	cmp    DWORD PTR [rsp],0x1
  4016a0:	76 06                	jbe    4016a8 <top_step+0x918>
  4016a2:	83 fb 01             	cmp    ebx,0x1
  4016a5:	0f 45 d3             	cmovne edx,ebx
  4016a8:	80 7c 24 26 00       	cmp    BYTE PTR [rsp+0x26],0x0
  4016ad:	44 8b 54 24 c0       	mov    r10d,DWORD PTR [rsp-0x40]
  4016b2:	41 0f 45 d1          	cmovne edx,r9d
  4016b6:	85 ed                	test   ebp,ebp
  4016b8:	41 0f 44 ca          	cmove  ecx,r10d
  4016bc:	41 83 fd 02          	cmp    r13d,0x2
  4016c0:	0f 84 7a 12 00 00    	je     402940 <top_step+0x1bb0>
  4016c6:	41 83 fd 01          	cmp    r13d,0x1
  4016ca:	41 0f 45 d2          	cmovne edx,r10d
  4016ce:	80 7c 24 24 00       	cmp    BYTE PTR [rsp+0x24],0x0
  4016d3:	8b 5c 24 98          	mov    ebx,DWORD PTR [rsp-0x68]
  4016d7:	41 0f 45 d0          	cmovne edx,r8d
  4016db:	80 7c 24 8f 00       	cmp    BYTE PTR [rsp-0x71],0x0
  4016e0:	0f 45 54 24 e4       	cmovne edx,DWORD PTR [rsp-0x1c]
  4016e5:	85 db                	test   ebx,ebx
  4016e7:	41 0f 45 d0          	cmovne edx,r8d
  4016eb:	80 7c 24 25 00       	cmp    BYTE PTR [rsp+0x25],0x0
  4016f0:	44 8b 44 24 c0       	mov    r8d,DWORD PTR [rsp-0x40]
  4016f5:	41 0f 44 c8          	cmove  ecx,r8d
  4016f9:	48 83 7c 24 90 00    	cmp    QWORD PTR [rsp-0x70],0x0
  4016ff:	41 0f 45 c8          	cmovne ecx,r8d
  401703:	83 f8 02             	cmp    eax,0x2
  401706:	74 09                	je     401711 <top_step+0x981>
  401708:	83 f8 01             	cmp    eax,0x1
  40170b:	41 0f 45 d0          	cmovne edx,r8d
  40170f:	89 d1                	mov    ecx,edx
  401711:	45 85 ff             	test   r15d,r15d
  401714:	41 0f 44 cb          	cmove  ecx,r11d
  401718:	41 83 fe 01          	cmp    r14d,0x1
  40171c:	0f 84 62 0f 00 00    	je     402684 <top_step+0x18f4>
  401722:	45 85 f6             	test   r14d,r14d
  401725:	0f 85 55 0f 00 00    	jne    402680 <top_step+0x18f0>
  40172b:	83 7c 24 64 02       	cmp    DWORD PTR [rsp+0x64],0x2
  401730:	44 8b 4c 24 bc       	mov    r9d,DWORD PTR [rsp-0x44]
  401735:	ba 00 00 00 00       	mov    edx,0x0
  40173a:	44 89 c9             	mov    ecx,r9d
  40173d:	41 0f 43 d1          	cmovae edx,r9d
  401741:	41 83 fd 01          	cmp    r13d,0x1
  401745:	0f 44 ca             	cmove  ecx,edx
  401748:	83 f8 01             	cmp    eax,0x1
  40174b:	44 0f 44 c9          	cmove  r9d,ecx
  40174f:	85 ed                	test   ebp,ebp
  401751:	0f 84 71 10 00 00    	je     4027c8 <top_step+0x1a38>
  401757:	80 7c 24 26 00       	cmp    BYTE PTR [rsp+0x26],0x0
  40175c:	44 8b 44 24 ac       	mov    r8d,DWORD PTR [rsp-0x54]
  401761:	0f 45 f2             	cmovne esi,edx
  401764:	41 83 fd 02          	cmp    r13d,0x2
  401768:	0f 84 77 10 00 00    	je     4027e5 <top_step+0x1a55>
  40176e:	41 83 fd 01          	cmp    r13d,0x1
  401772:	0f 45 74 24 bc       	cmovne esi,DWORD PTR [rsp-0x44]
  401777:	80 7c 24 24 00       	cmp    BYTE PTR [rsp+0x24],0x0
  40177c:	44 8b 54 24 98       	mov    r10d,DWORD PTR [rsp-0x68]
  401781:	8b 54 24 bc          	mov    edx,DWORD PTR [rsp-0x44]
  401785:	0f 45 f1             	cmovne esi,ecx
  401788:	80 7c 24 8f 00       	cmp    BYTE PTR [rsp-0x71],0x0
  40178d:	89 d3                	mov    ebx,edx
  40178f:	41 0f 45 f0          	cmovne esi,r8d
  401793:	45 85 d2             	test   r10d,r10d
  401796:	0f 45 f1             	cmovne esi,ecx
  401799:	80 7c 24 25 00       	cmp    BYTE PTR [rsp+0x25],0x0
  40179e:	89 d1                	mov    ecx,edx
  4017a0:	0f 45 5c 24 ac       	cmovne ebx,DWORD PTR [rsp-0x54]
  4017a5:	48 83 7c 24 90 00    	cmp    QWORD PTR [rsp-0x70],0x0
  4017ab:	0f 44 cb             	cmove  ecx,ebx
  4017ae:	83 f8 02             	cmp    eax,0x2
  4017b1:	89 4c 24 ac          	mov    DWORD PTR [rsp-0x54],ecx
  4017b5:	74 0a                	je     4017c1 <top_step+0xa31>
  4017b7:	83 f8 01             	cmp    eax,0x1
  4017ba:	0f 45 f2             	cmovne esi,edx
  4017bd:	89 74 24 ac          	mov    DWORD PTR [rsp-0x54],esi
  4017c1:	45 85 ff             	test   r15d,r15d
  4017c4:	44 0f 45 4c 24 ac    	cmovne r9d,DWORD PTR [rsp-0x54]
  4017ca:	41 83 fe 01          	cmp    r14d,0x1
  4017ce:	44 89 4c 24 ac       	mov    DWORD PTR [rsp-0x54],r9d
  4017d3:	0f 84 df 0f 00 00    	je     4027b8 <top_step+0x1a28>
  4017d9:	45 85 f6             	test   r14d,r14d
  4017dc:	0f 85 ce 0f 00 00    	jne    4027b0 <top_step+0x1a20>
  4017e2:	8b 5c 24 b4          	mov    ebx,DWORD PTR [rsp-0x4c]
  4017e6:	be 00 00 00 00       	mov    esi,0x0
  4017eb:	41 b8 02 00 00 00    	mov    r8d,0x2
  4017f1:	44 89 c1             	mov    ecx,r8d
  4017f4:	44 8b 4c 24 98       	mov    r9d,DWORD PTR [rsp-0x68]
  4017f9:	ba 01 00 00 00       	mov    edx,0x1
  4017fe:	83 fb 02             	cmp    ebx,0x2
  401801:	0f 45 f3             	cmovne esi,ebx
  401804:	80 7c 24 24 00       	cmp    BYTE PTR [rsp+0x24],0x0
  401809:	0f 44 c8             	cmove  ecx,eax
  40180c:	80 7c 24 8f 00       	cmp    BYTE PTR [rsp-0x71],0x0
  401811:	0f 45 ca             	cmovne ecx,edx
  401814:	45 85 c9             	test   r9d,r9d
  401817:	41 0f 45 c8          	cmovne ecx,r8d
  40181b:	80 7c 24 25 00       	cmp    BYTE PTR [rsp+0x25],0x0
  401820:	0f 44 d0             	cmove  edx,eax
  401823:	48 83 7c 24 90 00    	cmp    QWORD PTR [rsp-0x70],0x0
  401829:	41 0f 45 d0          	cmovne edx,r8d
  40182d:	83 f8 02             	cmp    eax,0x2
  401830:	74 08                	je     40183a <top_step+0xaaa>
  401832:	83 f8 01             	cmp    eax,0x1
  401835:	89 ca                	mov    edx,ecx
  401837:	0f 45 d0             	cmovne edx,eax
  40183a:	45 85 ff             	test   r15d,r15d
  40183d:	b9 02 00 00 00       	mov    ecx,0x2
  401842:	0f 44 c8             	cmove  ecx,eax
  401845:	0f 44 d6             	cmove  edx,esi
  401848:	41 83 fe 02          	cmp    r14d,0x2
  40184c:	89 0c 24             	mov    DWORD PTR [rsp],ecx
  40184f:	74 13                	je     401864 <top_step+0xad4>
  401851:	41 83 fe 01          	cmp    r14d,0x1
  401855:	0f 84 75 11 00 00    	je     4029d0 <top_step+0x1c40>
  40185b:	45 85 f6             	test   r14d,r14d
  40185e:	0f 45 c8             	cmovne ecx,eax
  401861:	89 0c 24             	mov    DWORD PTR [rsp],ecx
  401864:	41 83 fd 01          	cmp    r13d,0x1
  401868:	0f 84 42 11 00 00    	je     4029b0 <top_step+0x1c20>
  40186e:	45 31 c0             	xor    r8d,r8d
  401871:	83 7c 24 58 01       	cmp    DWORD PTR [rsp+0x58],0x1
  401876:	44 89 6c 24 ac       	mov    DWORD PTR [rsp-0x54],r13d
  40187b:	76 11                	jbe    40188e <top_step+0xafe>
  40187d:	8b 54 24 b0          	mov    edx,DWORD PTR [rsp-0x50]
  401881:	41 b8 00 00 00 00    	mov    r8d,0x0
  401887:	83 fa 03             	cmp    edx,0x3
  40188a:	44 0f 45 c2          	cmovne r8d,edx
  40188e:	83 7c 24 ac 02       	cmp    DWORD PTR [rsp-0x54],0x2
  401893:	8b 4c 24 b0          	mov    ecx,DWORD PTR [rsp-0x50]
  401897:	41 0f 44 c8          	cmove  ecx,r8d
  40189b:	8b 54 24 b0          	mov    edx,DWORD PTR [rsp-0x50]
  40189f:	83 f8 01             	cmp    eax,0x1
  4018a2:	be 03 00 00 00       	mov    esi,0x3
  4018a7:	41 89 f2             	mov    r10d,esi
  4018aa:	41 bb 01 00 00 00    	mov    r11d,0x1
  4018b0:	41 89 d1             	mov    r9d,edx
  4018b3:	89 d3                	mov    ebx,edx
  4018b5:	44 0f 44 c9          	cmove  r9d,ecx
  4018b9:	85 ed                	test   ebp,ebp
  4018bb:	44 0f 45 d1          	cmovne r10d,ecx
  4018bf:	80 7c 24 26 00       	cmp    BYTE PTR [rsp+0x26],0x0
  4018c4:	0f 44 f2             	cmove  esi,edx
  4018c7:	31 d2                	xor    edx,edx
  4018c9:	83 7c 24 fc 02       	cmp    DWORD PTR [rsp-0x4],0x2
  4018ce:	0f 95 c2             	setne  dl
  4018d1:	83 c2 02             	add    edx,0x2
  4018d4:	83 7c 24 d0 01       	cmp    DWORD PTR [rsp-0x30],0x1
  4018d9:	41 0f 44 d3          	cmove  edx,r11d
  4018dd:	83 7c 24 f8 01       	cmp    DWORD PTR [rsp-0x8],0x1
  4018e2:	76 06                	jbe    4018ea <top_step+0xb5a>
  4018e4:	83 fb 01             	cmp    ebx,0x1
  4018e7:	0f 45 d3             	cmovne edx,ebx
  4018ea:	85 ed                	test   ebp,ebp
  4018ec:	41 0f 45 d0          	cmovne edx,r8d
  4018f0:	41 83 fd 02          	cmp    r13d,0x2
  4018f4:	74 0b                	je     401901 <top_step+0xb71>
  4018f6:	41 83 fd 01          	cmp    r13d,0x1
  4018fa:	0f 45 74 24 b0       	cmovne esi,DWORD PTR [rsp-0x50]
  4018ff:	89 f2                	mov    edx,esi
  401901:	80 7c 24 24 00       	cmp    BYTE PTR [rsp+0x24],0x0
  401906:	8b 74 24 98          	mov    esi,DWORD PTR [rsp-0x68]
  40190a:	0f 45 d1             	cmovne edx,ecx
  40190d:	80 7c 24 8f 00       	cmp    BYTE PTR [rsp-0x71],0x0
  401912:	41 0f 45 d2          	cmovne edx,r10d
  401916:	85 f6                	test   esi,esi
  401918:	8b 74 24 b0          	mov    esi,DWORD PTR [rsp-0x50]
  40191c:	0f 45 d1             	cmovne edx,ecx
  40191f:	85 ed                	test   ebp,ebp
  401921:	b9 03 00 00 00       	mov    ecx,0x3
  401926:	0f 45 ce             	cmovne ecx,esi
  401929:	80 7c 24 25 00       	cmp    BYTE PTR [rsp+0x25],0x0
  40192e:	0f 44 ce             	cmove  ecx,esi
  401931:	48 83 7c 24 90 00    	cmp    QWORD PTR [rsp-0x70],0x0
  401937:	0f 45 ce             	cmovne ecx,esi
  40193a:	83 f8 02             	cmp    eax,0x2
  40193d:	74 08                	je     401947 <top_step+0xbb7>
  40193f:	83 f8 01             	cmp    eax,0x1
  401942:	0f 45 d6             	cmovne edx,esi
  401945:	89 d1                	mov    ecx,edx
  401947:	45 85 ff             	test   r15d,r15d
  40194a:	41 0f 44 c9          	cmove  ecx,r9d
  40194e:	41 83 fe 01          	cmp    r14d,0x1
  401952:	0f 84 2c 0e 00 00    	je     402784 <top_step+0x19f4>
  401958:	45 85 f6             	test   r14d,r14d
  40195b:	0f 85 1f 0e 00 00    	jne    402780 <top_step+0x19f0>
  401961:	8b 5c 24 a0          	mov    ebx,DWORD PTR [rsp-0x60]
  401965:	83 fb 01             	cmp    ebx,0x1
  401968:	0f 84 27 0e 00 00    	je     402795 <top_step+0x1a05>
  40196e:	83 fb 02             	cmp    ebx,0x2
  401971:	89 d9                	mov    ecx,ebx
  401973:	0f 94 c2             	sete   dl
  401976:	41 0f 95 c3          	setne  r11b
  40197a:	0f b6 d2             	movzx  edx,dl
  40197d:	89 54 24 e4          	mov    DWORD PTR [rsp-0x1c],edx
  401981:	44 22 5c 24 40       	and    r11b,BYTE PTR [rsp+0x40]
  401986:	83 7c 24 ac 02       	cmp    DWORD PTR [rsp-0x54],0x2
  40198b:	44 8b 57 38          	mov    r10d,DWORD PTR [rdi+0x38]
  40198f:	41 0f b6 db          	movzx  ebx,r11b
  401993:	41 89 db             	mov    r11d,ebx
  401996:	89 5c 24 38          	mov    DWORD PTR [rsp+0x38],ebx
  40199a:	8b 5c 24 c8          	mov    ebx,DWORD PTR [rsp-0x38]
  40199e:	44 0f 45 db          	cmovne r11d,ebx
  4019a2:	83 f8 01             	cmp    eax,0x1
  4019a5:	41 0f 44 db          	cmove  ebx,r11d
  4019a9:	41 83 fa 01          	cmp    r10d,0x1
  4019ad:	0f 95 44 24 f8       	setne  BYTE PTR [rsp-0x8]
  4019b2:	45 85 d2             	test   r10d,r10d
  4019b5:	89 5c 24 10          	mov    DWORD PTR [rsp+0x10],ebx
  4019b9:	0f 8e 71 10 00 00    	jle    402a30 <top_step+0x1ca0>
  4019bf:	45 31 c0             	xor    r8d,r8d
  4019c2:	41 83 fa 01          	cmp    r10d,0x1
  4019c6:	ba 00 00 00 00       	mov    edx,0x0
  4019cb:	41 0f 94 c0          	sete   r8b
  4019cf:	0f 95 44 24 56       	setne  BYTE PTR [rsp+0x56]
  4019d4:	44 0f 45 c2          	cmovne r8d,edx
  4019d8:	85 ed                	test   ebp,ebp
  4019da:	44 89 db             	mov    ebx,r11d
  4019dd:	41 0f 44 d8          	cmove  ebx,r8d
  4019e1:	45 31 c9             	xor    r9d,r9d
  4019e4:	45 85 e4             	test   r12d,r12d
  4019e7:	89 5c 24 34          	mov    DWORD PTR [rsp+0x34],ebx
  4019eb:	75 07                	jne    4019f4 <top_step+0xc64>
  4019ed:	44 8b 8f bc 00 00 00 	mov    r9d,DWORD PTR [rdi+0xbc]
  4019f4:	8b 54 24 a4          	mov    edx,DWORD PTR [rsp-0x5c]
  4019f8:	85 d2                	test   edx,edx
  4019fa:	0f 85 00 0e 00 00    	jne    402800 <top_step+0x1a70>
  401a00:	41 8d 51 01          	lea    edx,[r9+0x1]
  401a04:	41 39 d2             	cmp    r10d,edx
  401a07:	0f 95 44 24 a4       	setne  BYTE PTR [rsp-0x5c]
  401a0c:	41 39 d2             	cmp    r10d,edx
  401a0f:	0f 8c db 0d 00 00    	jl     4027f0 <top_step+0x1a60>
  401a15:	40 0f 94 c6          	sete   sil
  401a19:	80 7c 24 a4 00       	cmp    BYTE PTR [rsp-0x5c],0x0
  401a1e:	44 0f b6 e6          	movzx  r12d,sil
  401a22:	0f 85 cc 11 00 00    	jne    402bf4 <top_step+0x1e64>
  401a28:	40 22 74 24 27       	and    sil,BYTE PTR [rsp+0x27]
  401a2d:	40 0f b6 f6          	movzx  esi,sil
  401a31:	80 7c 24 26 00       	cmp    BYTE PTR [rsp+0x26],0x0
  401a36:	8b 5c 24 c8          	mov    ebx,DWORD PTR [rsp-0x38]
  401a3a:	41 0f 45 dc          	cmovne ebx,r12d
  401a3e:	80 7c 24 55 00       	cmp    BYTE PTR [rsp+0x55],0x0
  401a43:	89 5c 24 40          	mov    DWORD PTR [rsp+0x40],ebx
  401a47:	8b 5c 24 c8          	mov    ebx,DWORD PTR [rsp-0x38]
  401a4b:	44 0f 45 e3          	cmovne r12d,ebx
  401a4f:	83 7c 24 a0 02       	cmp    DWORD PTR [rsp-0x60],0x2
  401a54:	74 0b                	je     401a61 <top_step+0xcd1>
  401a56:	83 7c 24 a0 01       	cmp    DWORD PTR [rsp-0x60],0x1
  401a5b:	44 89 e6             	mov    esi,r12d
  401a5e:	0f 45 f3             	cmovne esi,ebx
  401a61:	85 ed                	test   ebp,ebp
  401a63:	0f 45 74 24 38       	cmovne esi,DWORD PTR [rsp+0x38]
  401a68:	41 83 fd 02          	cmp    r13d,0x2
  401a6c:	74 0d                	je     401a7b <top_step+0xceb>
  401a6e:	41 83 fd 01          	cmp    r13d,0x1
  401a72:	8b 74 24 40          	mov    esi,DWORD PTR [rsp+0x40]
  401a76:	0f 45 74 24 c8       	cmovne esi,DWORD PTR [rsp-0x38]
  401a7b:	80 7c 24 24 00       	cmp    BYTE PTR [rsp+0x24],0x0
  401a80:	44 8b 64 24 98       	mov    r12d,DWORD PTR [rsp-0x68]
  401a85:	8b 5c 24 c8          	mov    ebx,DWORD PTR [rsp-0x38]
  401a89:	41 0f 45 f3          	cmovne esi,r11d
  401a8d:	80 7c 24 8f 00       	cmp    BYTE PTR [rsp-0x71],0x0
  401a92:	0f 45 74 24 34       	cmovne esi,DWORD PTR [rsp+0x34]
  401a97:	45 85 e4             	test   r12d,r12d
  401a9a:	41 0f 45 f3          	cmovne esi,r11d
  401a9e:	85 ed                	test   ebp,ebp
  401aa0:	44 0f 45 c3          	cmovne r8d,ebx
  401aa4:	80 7c 24 25 00       	cmp    BYTE PTR [rsp+0x25],0x0
  401aa9:	44 0f 44 c3          	cmove  r8d,ebx
  401aad:	48 83 7c 24 90 00    	cmp    QWORD PTR [rsp-0x70],0x0
  401ab3:	44 0f 45 c3          	cmovne r8d,ebx
  401ab7:	83 f8 02             	cmp    eax,0x2
  401aba:	74 09                	je     401ac5 <top_step+0xd35>
  401abc:	83 f8 01             	cmp    eax,0x1
  401abf:	0f 45 f3             	cmovne esi,ebx
  401ac2:	41 89 f0             	mov    r8d,esi
  401ac5:	45 85 ff             	test   r15d,r15d
  401ac8:	44 0f 44 44 24 10    	cmove  r8d,DWORD PTR [rsp+0x10]
  401ace:	41 83 fe 01          	cmp    r14d,0x1
  401ad2:	0f 84 4d 0d 00 00    	je     402825 <top_step+0x1a95>
  401ad8:	45 85 f6             	test   r14d,r14d
  401adb:	0f 85 3f 0d 00 00    	jne    402820 <top_step+0x1a90>
  401ae1:	31 f6                	xor    esi,esi
  401ae3:	83 7c 24 b4 02       	cmp    DWORD PTR [rsp-0x4c],0x2
  401ae8:	44 0f b6 5c 24 f8    	movzx  r11d,BYTE PTR [rsp-0x8]
  401aee:	41 89 f0             	mov    r8d,esi
  401af1:	41 bc 01 00 00 00    	mov    r12d,0x1
  401af7:	8b 5c 24 a0          	mov    ebx,DWORD PTR [rsp-0x60]
  401afb:	45 0f 45 c1          	cmovne r8d,r9d
  401aff:	80 7c 24 56 00       	cmp    BYTE PTR [rsp+0x56],0x0
  401b04:	45 0f 45 dc          	cmovne r11d,r12d
  401b08:	85 ed                	test   ebp,ebp
  401b0a:	41 89 d4             	mov    r12d,edx
  401b0d:	44 0f 45 de          	cmovne r11d,esi
  401b11:	41 39 d2             	cmp    r10d,edx
  401b14:	0f 45 f2             	cmovne esi,edx
  401b17:	80 7c 24 a4 00       	cmp    BYTE PTR [rsp-0x5c],0x0
  401b1c:	0f 45 f2             	cmovne esi,edx
  401b1f:	80 7c 24 26 00       	cmp    BYTE PTR [rsp+0x26],0x0
  401b24:	41 89 f2             	mov    r10d,esi
  401b27:	45 0f 44 d1          	cmove  r10d,r9d
  401b2b:	80 7c 24 55 00       	cmp    BYTE PTR [rsp+0x55],0x0
  401b30:	44 0f 44 e6          	cmove  r12d,esi
  401b34:	80 7c 24 27 00       	cmp    BYTE PTR [rsp+0x27],0x0
  401b39:	0f 44 f2             	cmove  esi,edx
  401b3c:	83 fb 02             	cmp    ebx,0x2
  401b3f:	0f 84 ab 0e 00 00    	je     4029f0 <top_step+0x1c60>
  401b45:	83 fb 01             	cmp    ebx,0x1
  401b48:	41 0f 44 d4          	cmove  edx,r12d
  401b4c:	85 ed                	test   ebp,ebp
  401b4e:	41 0f 45 d1          	cmovne edx,r9d
  401b52:	41 83 fd 02          	cmp    r13d,0x2
  401b56:	74 0b                	je     401b63 <top_step+0xdd3>
  401b58:	41 83 fd 01          	cmp    r13d,0x1
  401b5c:	44 89 d2             	mov    edx,r10d
  401b5f:	41 0f 45 d1          	cmovne edx,r9d
  401b63:	31 f6                	xor    esi,esi
  401b65:	80 7c 24 24 00       	cmp    BYTE PTR [rsp+0x24],0x0
  401b6a:	8b 5c 24 98          	mov    ebx,DWORD PTR [rsp-0x68]
  401b6e:	0f 45 d6             	cmovne edx,esi
  401b71:	80 7c 24 8f 00       	cmp    BYTE PTR [rsp-0x71],0x0
  401b76:	41 0f 45 d3          	cmovne edx,r11d
  401b7a:	85 db                	test   ebx,ebx
  401b7c:	0f 45 d6             	cmovne edx,esi
  401b7f:	80 7c 24 25 00       	cmp    BYTE PTR [rsp+0x25],0x0
  401b84:	45 0f 44 d9          	cmove  r11d,r9d
  401b88:	48 83 7c 24 90 00    	cmp    QWORD PTR [rsp-0x70],0x0
  401b8e:	44 0f 45 de          	cmovne r11d,esi
  401b92:	83 f8 02             	cmp    eax,0x2
  401b95:	74 0a                	je     401ba1 <top_step+0xe11>
  401b97:	83 f8 01             	cmp    eax,0x1
  401b9a:	41 0f 45 d1          	cmovne edx,r9d
  401b9e:	41 89 d3             	mov    r11d,edx
  401ba1:	45 85 ff             	test   r15d,r15d
  401ba4:	ba 00 00 00 00       	mov    edx,0x0
  401ba9:	41 0f 44 d1          	cmove  edx,r9d
  401bad:	45 0f 45 c3          	cmovne r8d,r11d
  401bb1:	41 83 fe 02          	cmp    r14d,0x2
  401bb5:	41 89 d4             	mov    r12d,edx
  401bb8:	74 11                	je     401bcb <top_step+0xe3b>
  401bba:	41 83 fe 01          	cmp    r14d,0x1
  401bbe:	0f 84 3c 0e 00 00    	je     402a00 <top_step+0x1c70>
  401bc4:	45 85 f6             	test   r14d,r14d
  401bc7:	45 0f 45 e1          	cmovne r12d,r9d
  401bcb:	8b 5c 24 48          	mov    ebx,DWORD PTR [rsp+0x48]
  401bcf:	44 8b 54 24 dc       	mov    r10d,DWORD PTR [rsp-0x24]
  401bd4:	83 f9 02             	cmp    ecx,0x2
  401bd7:	44 8b 5c 24 ac       	mov    r11d,DWORD PTR [rsp-0x54]
  401bdc:	44 8b 4c 24 e4       	mov    r9d,DWORD PTR [rsp-0x1c]
  401be1:	41 89 d8             	mov    r8d,ebx
  401be4:	44 89 d6             	mov    esi,r10d
  401be7:	45 0f 45 c2          	cmovne r8d,r10d
  401beb:	41 83 fb 02          	cmp    r11d,0x2
  401bef:	41 0f 44 f0          	cmove  esi,r8d
  401bf3:	83 f8 01             	cmp    eax,0x1
  401bf6:	41 0f 45 f2          	cmovne esi,r10d
  401bfa:	31 d2                	xor    edx,edx
  401bfc:	83 7c 24 b4 02       	cmp    DWORD PTR [rsp-0x4c],0x2
  401c01:	0f 44 f2             	cmove  esi,edx
  401c04:	41 83 fb 02          	cmp    r11d,0x2
  401c08:	44 0f 45 ca          	cmovne r9d,edx
  401c0c:	85 ed                	test   ebp,ebp
  401c0e:	44 0f 44 ca          	cmove  r9d,edx
  401c12:	80 7c 24 26 00       	cmp    BYTE PTR [rsp+0x26],0x0
  401c17:	44 89 4c 24 e4       	mov    DWORD PTR [rsp-0x1c],r9d
  401c1c:	45 89 d1             	mov    r9d,r10d
  401c1f:	44 0f 45 ca          	cmovne r9d,edx
  401c23:	80 7c 24 27 00       	cmp    BYTE PTR [rsp+0x27],0x0
  401c28:	0f 44 d3             	cmove  edx,ebx
  401c2b:	83 7c 24 a0 02       	cmp    DWORD PTR [rsp-0x60],0x2
  401c30:	41 0f 45 d2          	cmovne edx,r10d
  401c34:	85 ed                	test   ebp,ebp
  401c36:	41 0f 45 d0          	cmovne edx,r8d
  401c3a:	41 83 fd 02          	cmp    r13d,0x2
  401c3e:	74 0b                	je     401c4b <top_step+0xebb>
  401c40:	41 83 fd 01          	cmp    r13d,0x1
  401c44:	44 89 ca             	mov    edx,r9d
  401c47:	41 0f 45 d2          	cmovne edx,r10d
  401c4b:	45 31 c0             	xor    r8d,r8d
  401c4e:	80 7c 24 24 00       	cmp    BYTE PTR [rsp+0x24],0x0
  401c53:	44 8b 5c 24 98       	mov    r11d,DWORD PTR [rsp-0x68]
  401c58:	8b 5c 24 dc          	mov    ebx,DWORD PTR [rsp-0x24]
  401c5c:	41 0f 45 d0          	cmovne edx,r8d
  401c60:	80 7c 24 8f 00       	cmp    BYTE PTR [rsp-0x71],0x0
  401c65:	41 89 d9             	mov    r9d,ebx
  401c68:	0f 45 54 24 e4       	cmovne edx,DWORD PTR [rsp-0x1c]
  401c6d:	45 85 db             	test   r11d,r11d
  401c70:	41 0f 45 d0          	cmovne edx,r8d
  401c74:	80 7c 24 25 00       	cmp    BYTE PTR [rsp+0x25],0x0
  401c79:	45 0f 45 c8          	cmovne r9d,r8d
  401c7d:	48 83 7c 24 90 00    	cmp    QWORD PTR [rsp-0x70],0x0
  401c83:	45 0f 45 c8          	cmovne r9d,r8d
  401c87:	83 f8 02             	cmp    eax,0x2
  401c8a:	74 09                	je     401c95 <top_step+0xf05>
  401c8c:	83 f8 01             	cmp    eax,0x1
  401c8f:	0f 45 d3             	cmovne edx,ebx
  401c92:	41 89 d1             	mov    r9d,edx
  401c95:	45 85 ff             	test   r15d,r15d
  401c98:	ba 00 00 00 00       	mov    edx,0x0
  401c9d:	44 0f 44 ce          	cmove  r9d,esi
  401ca1:	8b 74 24 dc          	mov    esi,DWORD PTR [rsp-0x24]
  401ca5:	0f 44 d6             	cmove  edx,esi
  401ca8:	41 83 fe 02          	cmp    r14d,0x2
  401cac:	89 54 24 a4          	mov    DWORD PTR [rsp-0x5c],edx
  401cb0:	74 14                	je     401cc6 <top_step+0xf36>
  401cb2:	41 83 fe 01          	cmp    r14d,0x1
  401cb6:	0f 84 24 0d 00 00    	je     4029e0 <top_step+0x1c50>
  401cbc:	45 85 f6             	test   r14d,r14d
  401cbf:	0f 44 f2             	cmove  esi,edx
  401cc2:	89 74 24 a4          	mov    DWORD PTR [rsp-0x5c],esi
  401cc6:	83 f9 02             	cmp    ecx,0x2
  401cc9:	ba 00 00 00 00       	mov    edx,0x0
  401cce:	44 8b 4c 24 a0       	mov    r9d,DWORD PTR [rsp-0x60]
  401cd3:	0f 44 ca             	cmove  ecx,edx
  401cd6:	83 7c 24 ac 02       	cmp    DWORD PTR [rsp-0x54],0x2
  401cdb:	44 89 ca             	mov    edx,r9d
  401cde:	0f 44 d1             	cmove  edx,ecx
  401ce1:	83 f8 01             	cmp    eax,0x1
  401ce4:	44 0f 44 ca          	cmove  r9d,edx
  401ce8:	85 ed                	test   ebp,ebp
  401cea:	0f 84 80 0b 00 00    	je     402870 <top_step+0x1ae0>
  401cf0:	80 7c 24 26 00       	cmp    BYTE PTR [rsp+0x26],0x0
  401cf5:	be 01 00 00 00       	mov    esi,0x1
  401cfa:	41 89 d0             	mov    r8d,edx
  401cfd:	0f 44 74 24 a0       	cmove  esi,DWORD PTR [rsp-0x60]
  401d02:	41 83 fd 02          	cmp    r13d,0x2
  401d06:	74 0b                	je     401d13 <top_step+0xf83>
  401d08:	41 83 fd 01          	cmp    r13d,0x1
  401d0c:	0f 45 74 24 a0       	cmovne esi,DWORD PTR [rsp-0x60]
  401d11:	89 f1                	mov    ecx,esi
  401d13:	80 7c 24 24 00       	cmp    BYTE PTR [rsp+0x24],0x0
  401d18:	44 8b 54 24 98       	mov    r10d,DWORD PTR [rsp-0x68]
  401d1d:	8b 5c 24 a0          	mov    ebx,DWORD PTR [rsp-0x60]
  401d21:	0f 45 ca             	cmovne ecx,edx
  401d24:	80 7c 24 8f 00       	cmp    BYTE PTR [rsp-0x71],0x0
  401d29:	41 0f 45 c8          	cmovne ecx,r8d
  401d2d:	45 85 d2             	test   r10d,r10d
  401d30:	0f 45 ca             	cmovne ecx,edx
  401d33:	85 ed                	test   ebp,ebp
  401d35:	ba 01 00 00 00       	mov    edx,0x1
  401d3a:	0f 45 d3             	cmovne edx,ebx
  401d3d:	80 7c 24 25 00       	cmp    BYTE PTR [rsp+0x25],0x0
  401d42:	0f 44 d3             	cmove  edx,ebx
  401d45:	48 83 7c 24 90 00    	cmp    QWORD PTR [rsp-0x70],0x0
  401d4b:	0f 45 d3             	cmovne edx,ebx
  401d4e:	83 f8 02             	cmp    eax,0x2
  401d51:	74 08                	je     401d5b <top_step+0xfcb>
  401d53:	83 f8 01             	cmp    eax,0x1
  401d56:	89 ca                	mov    edx,ecx
  401d58:	0f 45 d3             	cmovne edx,ebx
  401d5b:	45 85 ff             	test   r15d,r15d
  401d5e:	41 0f 44 d1          	cmove  edx,r9d
  401d62:	41 83 fe 01          	cmp    r14d,0x1
  401d66:	0f 84 d8 0a 00 00    	je     402844 <top_step+0x1ab4>
  401d6c:	45 85 f6             	test   r14d,r14d
  401d6f:	0f 85 cb 0a 00 00    	jne    402840 <top_step+0x1ab0>
  401d75:	83 7c 24 9c 03       	cmp    DWORD PTR [rsp-0x64],0x3
  401d7a:	0f 84 d3 0a 00 00    	je     402853 <top_step+0x1ac3>
  401d80:	83 7c 24 9c 02       	cmp    DWORD PTR [rsp-0x64],0x2
  401d85:	8b 4c 24 28          	mov    ecx,DWORD PTR [rsp+0x28]
  401d89:	75 0c                	jne    401d97 <top_step+0x1007>
  401d8b:	0f b6 4c 24 e8       	movzx  ecx,BYTE PTR [rsp-0x18]
  401d90:	0a 4c 24 54          	or     cl,BYTE PTR [rsp+0x54]
  401d94:	0f b6 c9             	movzx  ecx,cl
  401d97:	8b 5c 24 28          	mov    ebx,DWORD PTR [rsp+0x28]
  401d9b:	85 ed                	test   ebp,ebp
  401d9d:	0f 45 cb             	cmovne ecx,ebx
  401da0:	41 83 fd 02          	cmp    r13d,0x2
  401da4:	89 da                	mov    edx,ebx
  401da6:	0f 45 cb             	cmovne ecx,ebx
  401da9:	80 7c 24 8f 00       	cmp    BYTE PTR [rsp-0x71],0x0
  401dae:	75 0d                	jne    401dbd <top_step+0x102d>
  401db0:	0f b6 54 24 24       	movzx  edx,BYTE PTR [rsp+0x24]
  401db5:	83 f2 01             	xor    edx,0x1
  401db8:	21 ca                	and    edx,ecx
  401dba:	0f b6 d2             	movzx  edx,dl
  401dbd:	23 54 24 4c          	and    edx,DWORD PTR [rsp+0x4c]
  401dc1:	83 f8 02             	cmp    eax,0x2
  401dc4:	0f 84 46 0c 00 00    	je     402a10 <top_step+0x1c80>
  401dca:	83 f8 01             	cmp    eax,0x1
  401dcd:	0f 45 54 24 28       	cmovne edx,DWORD PTR [rsp+0x28]
  401dd2:	45 85 ff             	test   r15d,r15d
  401dd5:	75 0c                	jne    401de3 <top_step+0x1053>
  401dd7:	0f b6 54 24 5c       	movzx  edx,BYTE PTR [rsp+0x5c]
  401ddc:	22 54 24 e8          	and    dl,BYTE PTR [rsp-0x18]
  401de0:	0f b6 d2             	movzx  edx,dl
  401de3:	41 83 fe 02          	cmp    r14d,0x2
  401de7:	0f 84 43 0a 00 00    	je     402830 <top_step+0x1aa0>
  401ded:	41 83 fe 01          	cmp    r14d,0x1
  401df1:	0f 84 3d 0a 00 00    	je     402834 <top_step+0x1aa4>
  401df7:	45 85 f6             	test   r14d,r14d
  401dfa:	0f 85 fe 0d 00 00    	jne    402bfe <top_step+0x1e6e>
  401e00:	31 c9                	xor    ecx,ecx
  401e02:	83 7c 24 44 01       	cmp    DWORD PTR [rsp+0x44],0x1
  401e07:	76 0a                	jbe    401e13 <top_step+0x1083>
  401e09:	8b 54 24 9c          	mov    edx,DWORD PTR [rsp-0x64]
  401e0d:	83 fa 03             	cmp    edx,0x3
  401e10:	0f 45 ca             	cmovne ecx,edx
  401e13:	83 7c 24 ac 02       	cmp    DWORD PTR [rsp-0x54],0x2
  401e18:	8b 74 24 9c          	mov    esi,DWORD PTR [rsp-0x64]
  401e1c:	89 f2                	mov    edx,esi
  401e1e:	0f 44 d1             	cmove  edx,ecx
  401e21:	83 f8 01             	cmp    eax,0x1
  401e24:	0f 44 f2             	cmove  esi,edx
  401e27:	85 ed                	test   ebp,ebp
  401e29:	0f 84 61 0a 00 00    	je     402890 <top_step+0x1b00>
  401e2f:	80 7c 24 26 00       	cmp    BYTE PTR [rsp+0x26],0x0
  401e34:	0f 84 06 0c 00 00    	je     402a40 <top_step+0x1cb0>
  401e3a:	44 8b 44 24 30       	mov    r8d,DWORD PTR [rsp+0x30]
  401e3f:	89 4c 24 d0          	mov    DWORD PTR [rsp-0x30],ecx
  401e43:	89 54 24 30          	mov    DWORD PTR [rsp+0x30],edx
  401e47:	41 83 fd 02          	cmp    r13d,0x2
  401e4b:	74 0f                	je     401e5c <top_step+0x10cc>
  401e4d:	41 83 fd 01          	cmp    r13d,0x1
  401e51:	44 0f 45 44 24 9c    	cmovne r8d,DWORD PTR [rsp-0x64]
  401e57:	44 89 44 24 d0       	mov    DWORD PTR [rsp-0x30],r8d
  401e5c:	80 7c 24 24 00       	cmp    BYTE PTR [rsp+0x24],0x0
  401e61:	8b 5c 24 d0          	mov    ebx,DWORD PTR [rsp-0x30]
  401e65:	8b 4c 24 30          	mov    ecx,DWORD PTR [rsp+0x30]
  401e69:	44 8b 4c 24 98       	mov    r9d,DWORD PTR [rsp-0x68]
  401e6e:	0f 45 da             	cmovne ebx,edx
  401e71:	80 7c 24 8f 00       	cmp    BYTE PTR [rsp-0x71],0x0
  401e76:	0f 44 cb             	cmove  ecx,ebx
  401e79:	8b 5c 24 9c          	mov    ebx,DWORD PTR [rsp-0x64]
  401e7d:	45 85 c9             	test   r9d,r9d
  401e80:	0f 44 d1             	cmove  edx,ecx
  401e83:	85 ed                	test   ebp,ebp
  401e85:	89 d1                	mov    ecx,edx
  401e87:	ba 02 00 00 00       	mov    edx,0x2
  401e8c:	0f 45 d3             	cmovne edx,ebx
  401e8f:	80 7c 24 25 00       	cmp    BYTE PTR [rsp+0x25],0x0
  401e94:	0f 44 d3             	cmove  edx,ebx
  401e97:	48 83 7c 24 90 00    	cmp    QWORD PTR [rsp-0x70],0x0
  401e9d:	0f 45 d3             	cmovne edx,ebx
  401ea0:	83 f8 02             	cmp    eax,0x2
  401ea3:	74 08                	je     401ead <top_step+0x111d>
  401ea5:	83 f8 01             	cmp    eax,0x1
  401ea8:	89 ca                	mov    edx,ecx
  401eaa:	0f 45 d3             	cmovne edx,ebx
  401ead:	8b 5c 24 9c          	mov    ebx,DWORD PTR [rsp-0x64]
  401eb1:	45 85 ff             	test   r15d,r15d
  401eb4:	44 8b 44 24 cc       	mov    r8d,DWORD PTR [rsp-0x34]
  401eb9:	0f 44 d6             	cmove  edx,esi
  401ebc:	41 83 fe 01          	cmp    r14d,0x1
  401ec0:	44 8b 54 24 20       	mov    r10d,DWORD PTR [rsp+0x20]
  401ec5:	0f 45 d3             	cmovne edx,ebx
  401ec8:	83 fb 01             	cmp    ebx,0x1
  401ecb:	8b 5c 24 ac          	mov    ebx,DWORD PTR [rsp-0x54]
  401ecf:	45 0f 45 d0          	cmovne r10d,r8d
  401ed3:	44 89 c6             	mov    esi,r8d
  401ed6:	83 fb 02             	cmp    ebx,0x2
  401ed9:	41 0f 44 f2          	cmove  esi,r10d
  401edd:	83 f8 01             	cmp    eax,0x1
  401ee0:	41 0f 45 f0          	cmovne esi,r8d
  401ee4:	31 c9                	xor    ecx,ecx
  401ee6:	83 7c 24 b4 02       	cmp    DWORD PTR [rsp-0x4c],0x2
  401eeb:	0f 44 f1             	cmove  esi,ecx
  401eee:	83 fb 02             	cmp    ebx,0x2
  401ef1:	0f 44 4c 24 e0       	cmove  ecx,DWORD PTR [rsp-0x20]
  401ef6:	80 7c 24 e8 00       	cmp    BYTE PTR [rsp-0x18],0x0
  401efb:	89 4c 24 e0          	mov    DWORD PTR [rsp-0x20],ecx
  401eff:	75 11                	jne    401f12 <top_step+0x1182>
  401f01:	8b 4c 24 e0          	mov    ecx,DWORD PTR [rsp-0x20]
  401f05:	45 31 c0             	xor    r8d,r8d
  401f08:	85 ed                	test   ebp,ebp
  401f0a:	41 0f 44 c8          	cmove  ecx,r8d
  401f0e:	89 4c 24 e0          	mov    DWORD PTR [rsp-0x20],ecx
  401f12:	80 7c 24 26 00       	cmp    BYTE PTR [rsp+0x26],0x0
  401f17:	8b 5c 24 cc          	mov    ebx,DWORD PTR [rsp-0x34]
  401f1b:	41 b9 00 00 00 00    	mov    r9d,0x0
  401f21:	8b 4c 24 20          	mov    ecx,DWORD PTR [rsp+0x20]
  401f25:	44 8b 5c 24 2c       	mov    r11d,DWORD PTR [rsp+0x2c]
  401f2a:	44 0f 44 c3          	cmove  r8d,ebx
  401f2e:	80 7c 24 54 00       	cmp    BYTE PTR [rsp+0x54],0x0
  401f33:	0f 44 cb             	cmove  ecx,ebx
  401f36:	44 39 5c 24 b8       	cmp    DWORD PTR [rsp-0x48],r11d
  401f3b:	44 8b 5c 24 9c       	mov    r11d,DWORD PTR [rsp-0x64]
  401f40:	44 0f 4c cb          	cmovl  r9d,ebx
  401f44:	41 83 fb 03          	cmp    r11d,0x3
  401f48:	0f 84 c2 09 00 00    	je     402910 <top_step+0x1b80>
  401f4e:	41 83 fb 02          	cmp    r11d,0x2
  401f52:	74 0b                	je     401f5f <top_step+0x11cf>
  401f54:	8b 4c 24 20          	mov    ecx,DWORD PTR [rsp+0x20]
  401f58:	41 83 fb 01          	cmp    r11d,0x1
  401f5c:	0f 45 cb             	cmovne ecx,ebx
  401f5f:	85 ed                	test   ebp,ebp
  401f61:	41 0f 45 ca          	cmovne ecx,r10d
  401f65:	41 83 fd 02          	cmp    r13d,0x2
  401f69:	74 0c                	je     401f77 <top_step+0x11e7>
  401f6b:	41 83 fd 01          	cmp    r13d,0x1
  401f6f:	44 89 c1             	mov    ecx,r8d
  401f72:	0f 45 4c 24 cc       	cmovne ecx,DWORD PTR [rsp-0x34]
  401f77:	45 31 c9             	xor    r9d,r9d
  401f7a:	80 7c 24 24 00       	cmp    BYTE PTR [rsp+0x24],0x0
  401f7f:	44 8b 44 24 98       	mov    r8d,DWORD PTR [rsp-0x68]
  401f84:	8b 5c 24 cc          	mov    ebx,DWORD PTR [rsp-0x34]
  401f88:	41 0f 45 c9          	cmovne ecx,r9d
  401f8c:	80 7c 24 8f 00       	cmp    BYTE PTR [rsp-0x71],0x0
  401f91:	0f 45 4c 24 e0       	cmovne ecx,DWORD PTR [rsp-0x20]
  401f96:	45 85 c0             	test   r8d,r8d
  401f99:	41 89 d8             	mov    r8d,ebx
  401f9c:	41 0f 45 c9          	cmovne ecx,r9d
  401fa0:	80 7c 24 25 00       	cmp    BYTE PTR [rsp+0x25],0x0
  401fa5:	45 0f 45 c1          	cmovne r8d,r9d
  401fa9:	48 83 7c 24 90 00    	cmp    QWORD PTR [rsp-0x70],0x0
  401faf:	45 0f 45 c1          	cmovne r8d,r9d
  401fb3:	83 f8 02             	cmp    eax,0x2
  401fb6:	74 09                	je     401fc1 <top_step+0x1231>
  401fb8:	83 f8 01             	cmp    eax,0x1
  401fbb:	0f 45 cb             	cmovne ecx,ebx
  401fbe:	41 89 c8             	mov    r8d,ecx
  401fc1:	45 85 ff             	test   r15d,r15d
  401fc4:	b9 00 00 00 00       	mov    ecx,0x0
  401fc9:	44 0f 44 c6          	cmove  r8d,esi
  401fcd:	8b 74 24 cc          	mov    esi,DWORD PTR [rsp-0x34]
  401fd1:	0f 44 ce             	cmove  ecx,esi
  401fd4:	41 83 fe 02          	cmp    r14d,0x2
  401fd8:	89 4c 24 cc          	mov    DWORD PTR [rsp-0x34],ecx
  401fdc:	74 14                	je     401ff2 <top_step+0x1262>
  401fde:	41 83 fe 01          	cmp    r14d,0x1
  401fe2:	0f 84 38 09 00 00    	je     402920 <top_step+0x1b90>
  401fe8:	45 85 f6             	test   r14d,r14d
  401feb:	0f 44 f1             	cmove  esi,ecx
  401fee:	89 74 24 cc          	mov    DWORD PTR [rsp-0x34],esi
  401ff2:	83 7c 24 b4 02       	cmp    DWORD PTR [rsp-0x4c],0x2
  401ff7:	44 8b 54 24 b8       	mov    r10d,DWORD PTR [rsp-0x48]
  401ffc:	41 b8 00 00 00 00    	mov    r8d,0x0
  402002:	44 8b 5c 24 c4       	mov    r11d,DWORD PTR [rsp-0x3c]
  402007:	be 01 00 00 00       	mov    esi,0x1
  40200c:	8b 5c 24 9c          	mov    ebx,DWORD PTR [rsp-0x64]
  402010:	45 89 d1             	mov    r9d,r10d
  402013:	45 0f 45 c2          	cmovne r8d,r10d
  402017:	80 7c 24 e8 00       	cmp    BYTE PTR [rsp-0x18],0x0
  40201c:	44 89 d9             	mov    ecx,r11d
  40201f:	41 0f 44 ca          	cmove  ecx,r10d
  402023:	85 ed                	test   ebp,ebp
  402025:	44 0f 44 c9          	cmove  r9d,ecx
  402029:	80 7c 24 26 00       	cmp    BYTE PTR [rsp+0x26],0x0
  40202e:	41 0f 44 ca          	cmove  ecx,r10d
  402032:	80 7c 24 57 00       	cmp    BYTE PTR [rsp+0x57],0x0
  402037:	41 0f 44 f2          	cmove  esi,r10d
  40203b:	44 3b 54 24 2c       	cmp    r10d,DWORD PTR [rsp+0x2c]
  402040:	45 0f 4d da          	cmovge r11d,r10d
  402044:	83 fb 03             	cmp    ebx,0x3
  402047:	44 89 5c 24 c4       	mov    DWORD PTR [rsp-0x3c],r11d
  40204c:	74 15                	je     402063 <top_step+0x12d3>
  40204e:	83 fb 02             	cmp    ebx,0x2
  402051:	44 89 54 24 c4       	mov    DWORD PTR [rsp-0x3c],r10d
  402056:	74 0b                	je     402063 <top_step+0x12d3>
  402058:	83 fb 01             	cmp    ebx,0x1
  40205b:	41 0f 45 f2          	cmovne esi,r10d
  40205f:	89 74 24 c4          	mov    DWORD PTR [rsp-0x3c],esi
  402063:	8b 74 24 c4          	mov    esi,DWORD PTR [rsp-0x3c]
  402067:	8b 5c 24 b8          	mov    ebx,DWORD PTR [rsp-0x48]
  40206b:	85 ed                	test   ebp,ebp
  40206d:	0f 45 f3             	cmovne esi,ebx
  402070:	41 83 fd 02          	cmp    r13d,0x2
  402074:	89 74 24 c4          	mov    DWORD PTR [rsp-0x3c],esi
  402078:	74 0b                	je     402085 <top_step+0x12f5>
  40207a:	41 83 fd 01          	cmp    r13d,0x1
  40207e:	0f 45 cb             	cmovne ecx,ebx
  402081:	89 4c 24 c4          	mov    DWORD PTR [rsp-0x3c],ecx
  402085:	31 f6                	xor    esi,esi
  402087:	80 7c 24 24 00       	cmp    BYTE PTR [rsp+0x24],0x0
  40208c:	8b 5c 24 c4          	mov    ebx,DWORD PTR [rsp-0x3c]
  402090:	8b 4c 24 98          	mov    ecx,DWORD PTR [rsp-0x68]
  402094:	0f 45 de             	cmovne ebx,esi
  402097:	80 7c 24 8f 00       	cmp    BYTE PTR [rsp-0x71],0x0
  40209c:	44 0f 44 cb          	cmove  r9d,ebx
  4020a0:	85 c9                	test   ecx,ecx
  4020a2:	8b 5c 24 b8          	mov    ebx,DWORD PTR [rsp-0x48]
  4020a6:	44 0f 45 ce          	cmovne r9d,esi
  4020aa:	80 7c 24 25 00       	cmp    BYTE PTR [rsp+0x25],0x0
  4020af:	89 d9                	mov    ecx,ebx
  4020b1:	0f 45 ce             	cmovne ecx,esi
  4020b4:	48 83 7c 24 90 00    	cmp    QWORD PTR [rsp-0x70],0x0
  4020ba:	0f 45 ce             	cmovne ecx,esi
  4020bd:	83 f8 02             	cmp    eax,0x2
  4020c0:	74 09                	je     4020cb <top_step+0x133b>
  4020c2:	83 f8 01             	cmp    eax,0x1
  4020c5:	44 89 c9             	mov    ecx,r9d
  4020c8:	0f 45 cb             	cmovne ecx,ebx
  4020cb:	8b 74 24 b8          	mov    esi,DWORD PTR [rsp-0x48]
  4020cf:	45 85 ff             	test   r15d,r15d
  4020d2:	41 0f 44 c8          	cmove  ecx,r8d
  4020d6:	41 b8 00 00 00 00    	mov    r8d,0x0
  4020dc:	44 0f 44 c6          	cmove  r8d,esi
  4020e0:	41 83 fe 02          	cmp    r14d,0x2
  4020e4:	74 11                	je     4020f7 <top_step+0x1367>
  4020e6:	41 83 fe 01          	cmp    r14d,0x1
  4020ea:	0f 84 00 08 00 00    	je     4028f0 <top_step+0x1b60>
  4020f0:	45 85 f6             	test   r14d,r14d
  4020f3:	44 0f 45 c6          	cmovne r8d,esi
  4020f7:	31 c9                	xor    ecx,ecx
  4020f9:	8b 74 24 d8          	mov    esi,DWORD PTR [rsp-0x28]
  4020fd:	83 7c 24 b4 02       	cmp    DWORD PTR [rsp-0x4c],0x2
  402102:	44 8b 5c 24 50       	mov    r11d,DWORD PTR [rsp+0x50]
  402107:	8b 5c 24 98          	mov    ebx,DWORD PTR [rsp-0x68]
  40210b:	41 89 f1             	mov    r9d,esi
  40210e:	44 0f 44 c9          	cmove  r9d,ecx
  402112:	80 7c 24 54 00       	cmp    BYTE PTR [rsp+0x54],0x0
  402117:	44 0f 44 de          	cmove  r11d,esi
  40211b:	83 7c 24 9c 02       	cmp    DWORD PTR [rsp-0x64],0x2
  402120:	44 0f 45 de          	cmovne r11d,esi
  402124:	85 ed                	test   ebp,ebp
  402126:	44 0f 45 de          	cmovne r11d,esi
  40212a:	41 83 fd 02          	cmp    r13d,0x2
  40212e:	44 0f 45 de          	cmovne r11d,esi
  402132:	80 7c 24 24 00       	cmp    BYTE PTR [rsp+0x24],0x0
  402137:	44 0f 45 d9          	cmovne r11d,ecx
  40213b:	80 7c 24 8f 00       	cmp    BYTE PTR [rsp-0x71],0x0
  402140:	44 0f 45 d9          	cmovne r11d,ecx
  402144:	85 db                	test   ebx,ebx
  402146:	44 0f 45 d9          	cmovne r11d,ecx
  40214a:	80 7c 24 25 00       	cmp    BYTE PTR [rsp+0x25],0x0
  40214f:	45 89 da             	mov    r10d,r11d
  402152:	41 89 f3             	mov    r11d,esi
  402155:	0f 45 f1             	cmovne esi,ecx
  402158:	48 83 7c 24 90 00    	cmp    QWORD PTR [rsp-0x70],0x0
  40215e:	0f 45 f1             	cmovne esi,ecx
  402161:	83 f8 02             	cmp    eax,0x2
  402164:	74 0a                	je     402170 <top_step+0x13e0>
  402166:	83 f8 01             	cmp    eax,0x1
  402169:	44 89 d6             	mov    esi,r10d
  40216c:	41 0f 45 f3          	cmovne esi,r11d
  402170:	8b 5c 24 d8          	mov    ebx,DWORD PTR [rsp-0x28]
  402174:	45 85 ff             	test   r15d,r15d
  402177:	41 0f 44 f1          	cmove  esi,r9d
  40217b:	41 b9 00 00 00 00    	mov    r9d,0x0
  402181:	44 0f 44 cb          	cmove  r9d,ebx
  402185:	41 83 fe 02          	cmp    r14d,0x2
  402189:	74 11                	je     40219c <top_step+0x140c>
  40218b:	41 83 fe 01          	cmp    r14d,0x1
  40218f:	0f 84 6b 07 00 00    	je     402900 <top_step+0x1b70>
  402195:	45 85 f6             	test   r14d,r14d
  402198:	44 0f 45 cb          	cmovne r9d,ebx
  40219c:	8b 74 24 ac          	mov    esi,DWORD PTR [rsp-0x54]
  4021a0:	b9 00 00 00 00       	mov    ecx,0x0
  4021a5:	83 fe 02             	cmp    esi,0x2
  4021a8:	0f 45 ce             	cmovne ecx,esi
  4021ab:	83 f8 01             	cmp    eax,0x1
  4021ae:	41 89 ca             	mov    r10d,ecx
  4021b1:	89 4c 24 ac          	mov    DWORD PTR [rsp-0x54],ecx
  4021b5:	45 0f 45 d5          	cmovne r10d,r13d
  4021b9:	85 ed                	test   ebp,ebp
  4021bb:	0f 84 e7 06 00 00    	je     4028a8 <top_step+0x1b18>
  4021c1:	80 7c 24 26 00       	cmp    BYTE PTR [rsp+0x26],0x0
  4021c6:	41 bb 02 00 00 00    	mov    r11d,0x2
  4021cc:	be 01 00 00 00       	mov    esi,0x1
  4021d1:	b9 01 00 00 00       	mov    ecx,0x1
  4021d6:	45 0f 44 dd          	cmove  r11d,r13d
  4021da:	41 83 fd 02          	cmp    r13d,0x2
  4021de:	74 0b                	je     4021eb <top_step+0x145b>
  4021e0:	41 83 fd 01          	cmp    r13d,0x1
  4021e4:	44 89 d9             	mov    ecx,r11d
  4021e7:	41 0f 45 cd          	cmovne ecx,r13d
  4021eb:	80 7c 24 24 00       	cmp    BYTE PTR [rsp+0x24],0x0
  4021f0:	8b 5c 24 ac          	mov    ebx,DWORD PTR [rsp-0x54]
  4021f4:	44 8b 5c 24 98       	mov    r11d,DWORD PTR [rsp-0x68]
  4021f9:	0f 45 cb             	cmovne ecx,ebx
  4021fc:	80 7c 24 8f 00       	cmp    BYTE PTR [rsp-0x71],0x0
  402201:	0f 45 ce             	cmovne ecx,esi
  402204:	45 85 db             	test   r11d,r11d
  402207:	0f 45 cb             	cmovne ecx,ebx
  40220a:	80 7c 24 25 00       	cmp    BYTE PTR [rsp+0x25],0x0
  40220f:	41 0f 44 f5          	cmove  esi,r13d
  402213:	48 83 7c 24 90 00    	cmp    QWORD PTR [rsp-0x70],0x0
  402219:	41 0f 45 f5          	cmovne esi,r13d
  40221d:	83 f8 02             	cmp    eax,0x2
  402220:	74 09                	je     40222b <top_step+0x149b>
  402222:	83 f8 01             	cmp    eax,0x1
  402225:	89 ce                	mov    esi,ecx
  402227:	41 0f 45 f5          	cmovne esi,r13d
  40222b:	45 85 ff             	test   r15d,r15d
  40222e:	0f 85 1c 05 00 00    	jne    402750 <top_step+0x19c0>
  402234:	41 83 fe 01          	cmp    r14d,0x1
  402238:	0f 84 42 09 00 00    	je     402b80 <top_step+0x1df0>
  40223e:	45 85 f6             	test   r14d,r14d
  402241:	0f 85 a1 08 00 00    	jne    402ae8 <top_step+0x1d58>
  402247:	45 85 ff             	test   r15d,r15d
  40224a:	b8 01 00 00 00       	mov    eax,0x1
  40224f:	75 0d                	jne    40225e <top_step+0x14ce>
  402251:	31 c9                	xor    ecx,ecx
  402253:	b8 02 00 00 00       	mov    eax,0x2
  402258:	45 85 f6             	test   r14d,r14d
  40225b:	0f 45 c1             	cmovne eax,ecx
  40225e:	8b 74 24 08          	mov    esi,DWORD PTR [rsp+0x8]
  402262:	44 89 a7 bc 00 00 00 	mov    DWORD PTR [rdi+0xbc],r12d
  402269:	c7 47 70 00 00 00 00 	mov    DWORD PTR [rdi+0x70],0x0
  402270:	c7 47 78 00 00 00 00 	mov    DWORD PTR [rdi+0x78],0x0
  402277:	c7 87 80 00 00 00 00 	mov    DWORD PTR [rdi+0x80],0x0
  40227e:	00 00 00 
  402281:	c7 87 88 00 00 00 00 	mov    DWORD PTR [rdi+0x88],0x0
  402288:	00 00 00 
  40228b:	89 77 6c             	mov    DWORD PTR [rdi+0x6c],esi
  40228e:	8b 74 24 d4          	mov    esi,DWORD PTR [rsp-0x2c]
  402292:	c7 87 90 00 00 00 00 	mov    DWORD PTR [rdi+0x90],0x0
  402299:	00 00 00 
  40229c:	c7 87 98 00 00 00 00 	mov    DWORD PTR [rdi+0x98],0x0
  4022a3:	00 00 00 
  4022a6:	c7 87 a0 00 00 00 00 	mov    DWORD PTR [rdi+0xa0],0x0
  4022ad:	00 00 00 
  4022b0:	c7 87 a8 00 00 00 00 	mov    DWORD PTR [rdi+0xa8],0x0
  4022b7:	00 00 00 
  4022ba:	89 77 74             	mov    DWORD PTR [rdi+0x74],esi
  4022bd:	8b 74 24 04          	mov    esi,DWORD PTR [rsp+0x4]
  4022c1:	c7 87 b0 00 00 00 00 	mov    DWORD PTR [rdi+0xb0],0x0
  4022c8:	00 00 00 
  4022cb:	c7 87 b8 00 00 00 00 	mov    DWORD PTR [rdi+0xb8],0x0
  4022d2:	00 00 00 
  4022d5:	c7 87 c0 00 00 00 00 	mov    DWORD PTR [rdi+0xc0],0x0
  4022dc:	00 00 00 
  4022df:	89 77 7c             	mov    DWORD PTR [rdi+0x7c],esi
  4022e2:	8b 74 24 a8          	mov    esi,DWORD PTR [rsp-0x58]
  4022e6:	89 b7 84 00 00 00    	mov    DWORD PTR [rdi+0x84],esi
  4022ec:	8b 74 24 c0          	mov    esi,DWORD PTR [rsp-0x40]
  4022f0:	89 b7 8c 00 00 00    	mov    DWORD PTR [rdi+0x8c],esi
  4022f6:	8b 74 24 bc          	mov    esi,DWORD PTR [rsp-0x44]
  4022fa:	89 b7 94 00 00 00    	mov    DWORD PTR [rdi+0x94],esi
  402300:	8b 34 24             	mov    esi,DWORD PTR [rsp]
  402303:	89 b7 9c 00 00 00    	mov    DWORD PTR [rdi+0x9c],esi
  402309:	8b 74 24 0c          	mov    esi,DWORD PTR [rsp+0xc]
  40230d:	89 b7 a4 00 00 00    	mov    DWORD PTR [rdi+0xa4],esi
  402313:	8b 74 24 b0          	mov    esi,DWORD PTR [rsp-0x50]
  402317:	89 b7 ac 00 00 00    	mov    DWORD PTR [rdi+0xac],esi
  40231d:	8b 74 24 c8          	mov    esi,DWORD PTR [rsp-0x38]
  402321:	89 b7 b4 00 00 00    	mov    DWORD PTR [rdi+0xb4],esi
  402327:	8b 74 24 a4          	mov    esi,DWORD PTR [rsp-0x5c]
  40232b:	89 97 dc 00 00 00    	mov    DWORD PTR [rdi+0xdc],edx
  402331:	8b 54 24 cc          	mov    edx,DWORD PTR [rsp-0x34]
  402335:	44 89 af fc 00 00 00 	mov    DWORD PTR [rdi+0xfc],r13d
  40233c:	c7 87 c8 00 00 00 00 	mov    DWORD PTR [rdi+0xc8],0x0
  402343:	00 00 00 
  402346:	89 b7 c4 00 00 00    	mov    DWORD PTR [rdi+0xc4],esi
  40234c:	8b 74 24 a0          	mov    esi,DWORD PTR [rsp-0x60]
  402350:	c7 87 d0 00 00 00 00 	mov    DWORD PTR [rdi+0xd0],0x0
  402357:	00 00 00 
  40235a:	c7 87 d8 00 00 00 00 	mov    DWORD PTR [rdi+0xd8],0x0
  402361:	00 00 00 
  402364:	c7 87 e0 00 00 00 00 	mov    DWORD PTR [rdi+0xe0],0x0
  40236b:	00 00 00 
  40236e:	89 97 e4 00 00 00    	mov    DWORD PTR [rdi+0xe4],edx
  402374:	89 b7 cc 00 00 00    	mov    DWORD PTR [rdi+0xcc],esi
  40237a:	8b 74 24 3c          	mov    esi,DWORD PTR [rsp+0x3c]
  40237e:	c7 87 e8 00 00 00 00 	mov    DWORD PTR [rdi+0xe8],0x0
  402385:	00 00 00 
  402388:	44 89 87 ec 00 00 00 	mov    DWORD PTR [rdi+0xec],r8d
  40238f:	c7 87 f0 00 00 00 00 	mov    DWORD PTR [rdi+0xf0],0x0
  402396:	00 00 00 
  402399:	44 89 8f f4 00 00 00 	mov    DWORD PTR [rdi+0xf4],r9d
  4023a0:	89 b7 d4 00 00 00    	mov    DWORD PTR [rdi+0xd4],esi
  4023a6:	c7 87 f8 00 00 00 00 	mov    DWORD PTR [rdi+0xf8],0x0
  4023ad:	00 00 00 
  4023b0:	c7 87 00 01 00 00 00 	mov    DWORD PTR [rdi+0x100],0x0
  4023b7:	00 00 00 
  4023ba:	89 87 04 01 00 00    	mov    DWORD PTR [rdi+0x104],eax
  4023c0:	c7 87 08 01 00 00 00 	mov    DWORD PTR [rdi+0x108],0x0
  4023c7:	00 00 00 
  4023ca:	c7 87 0c 01 00 00 00 	mov    DWORD PTR [rdi+0x10c],0x0
  4023d1:	00 00 00 
  4023d4:	48 83 c4 68          	add    rsp,0x68
  4023d8:	5b                   	pop    rbx
  4023d9:	5d                   	pop    rbp
  4023da:	41 5c                	pop    r12
  4023dc:	41 5d                	pop    r13
  4023de:	41 5e                	pop    r14
  4023e0:	41 5f                	pop    r15
  4023e2:	c3                   	ret    
  4023e3:	0f 1f 44 00 00       	nop    DWORD PTR [rax+rax*1+0x0]
  4023e8:	8b 87 9c 00 00 00    	mov    eax,DWORD PTR [rdi+0x9c]
  4023ee:	44 8b b7 04 01 00 00 	mov    r14d,DWORD PTR [rdi+0x104]
  4023f5:	44 8b 7f 08          	mov    r15d,DWORD PTR [rdi+0x8]
  4023f9:	c7 44 24 a4 00 00 00 	mov    DWORD PTR [rsp-0x5c],0x0
  402400:	00 
  402401:	c6 44 24 08 01       	mov    BYTE PTR [rsp+0x8],0x1
  402406:	83 f8 01             	cmp    eax,0x1
  402409:	0f 95 44 24 0c       	setne  BYTE PTR [rsp+0xc]
  40240e:	e9 b6 e9 ff ff       	jmp    400dc9 <top_step+0x39>
  402413:	0f 1f 44 00 00       	nop    DWORD PTR [rax+rax*1+0x0]
  402418:	8b 77 1c             	mov    esi,DWORD PTR [rdi+0x1c]
  40241b:	8b 4c 24 d4          	mov    ecx,DWORD PTR [rsp-0x2c]
  40241f:	85 ed                	test   ebp,ebp
  402421:	44 8b 6c 24 a4       	mov    r13d,DWORD PTR [rsp-0x5c]
  402426:	c7 44 24 3c 00 00 00 	mov    DWORD PTR [rsp+0x3c],0x0
  40242d:	00 
  40242e:	c6 44 24 e8 00       	mov    BYTE PTR [rsp-0x18],0x0
  402433:	c7 44 24 28 00 00 00 	mov    DWORD PTR [rsp+0x28],0x0
  40243a:	00 
  40243b:	0f 44 ce             	cmove  ecx,esi
  40243e:	89 74 24 a8          	mov    DWORD PTR [rsp-0x58],esi
  402442:	c7 44 24 30 02 00 00 	mov    DWORD PTR [rsp+0x30],0x2
  402449:	00 
  40244a:	45 85 ed             	test   r13d,r13d
  40244d:	89 4c 24 5c          	mov    DWORD PTR [rsp+0x5c],ecx
  402451:	c7 44 24 e4 00 00 00 	mov    DWORD PTR [rsp-0x1c],0x0
  402458:	00 
  402459:	0f 85 89 ea ff ff    	jne    400ee8 <top_step+0x158>
  40245f:	8b 4f 3c             	mov    ecx,DWORD PTR [rdi+0x3c]
  402462:	8b 74 24 e4          	mov    esi,DWORD PTR [rsp-0x1c]
  402466:	83 e9 01             	sub    ecx,0x1
  402469:	44 8d 46 01          	lea    r8d,[rsi+0x1]
  40246d:	39 ce                	cmp    esi,ecx
  40246f:	8b 4f 40             	mov    ecx,DWORD PTR [rdi+0x40]
  402472:	40 0f 9d c6          	setge  sil
  402476:	39 4f 54             	cmp    DWORD PTR [rdi+0x54],ecx
  402479:	0f 9d c1             	setge  cl
  40247c:	09 ce                	or     esi,ecx
  40247e:	45 85 e4             	test   r12d,r12d
  402481:	40 88 74 24 24       	mov    BYTE PTR [rsp+0x24],sil
  402486:	0f 84 bc 00 00 00    	je     402548 <top_step+0x17b8>
  40248c:	41 83 f9 02          	cmp    r9d,0x2
  402490:	c7 44 24 c0 00 00 00 	mov    DWORD PTR [rsp-0x40],0x0
  402497:	00 
  402498:	c7 04 24 fe ff ff ff 	mov    DWORD PTR [rsp],0xfffffffe
  40249f:	40 0f 9e c6          	setle  sil
  4024a3:	40 22 74 24 25       	and    sil,BYTE PTR [rsp+0x25]
  4024a8:	85 d2                	test   edx,edx
  4024aa:	0f 94 c2             	sete   dl
  4024ad:	c7 44 24 bc 00 00 00 	mov    DWORD PTR [rsp-0x44],0x0
  4024b4:	00 
  4024b5:	45 31 ed             	xor    r13d,r13d
  4024b8:	21 f2                	and    edx,esi
  4024ba:	40 0f b6 ce          	movzx  ecx,sil
  4024be:	88 54 24 26          	mov    BYTE PTR [rsp+0x26],dl
  4024c2:	ba ff ff ff ff       	mov    edx,0xffffffff
  4024c7:	89 54 24 60          	mov    DWORD PTR [rsp+0x60],edx
  4024cb:	89 54 24 64          	mov    DWORD PTR [rsp+0x64],edx
  4024cf:	e9 9c ea ff ff       	jmp    400f70 <top_step+0x1e0>
  4024d4:	0f 1f 40 00          	nop    DWORD PTR [rax+0x0]
  4024d8:	41 83 f9 04          	cmp    r9d,0x4
  4024dc:	c6 44 24 34 00       	mov    BYTE PTR [rsp+0x34],0x0
  4024e1:	c7 44 24 ac 01 00 00 	mov    DWORD PTR [rsp-0x54],0x1
  4024e8:	00 
  4024e9:	41 0f 94 c2          	sete   r10b
  4024ed:	8b 77 48             	mov    esi,DWORD PTR [rdi+0x48]
  4024f0:	41 83 f9 03          	cmp    r9d,0x3
  4024f4:	c6 44 24 38 00       	mov    BYTE PTR [rsp+0x38],0x0
  4024f9:	0f 94 44 24 10       	sete   BYTE PTR [rsp+0x10]
  4024fe:	89 74 24 d4          	mov    DWORD PTR [rsp-0x2c],esi
  402502:	e9 72 e9 ff ff       	jmp    400e79 <top_step+0xe9>
  402507:	66 0f 1f 84 00 00 00 	nop    WORD PTR [rax+rax*1+0x0]
  40250e:	00 00 
  402510:	41 83 f9 02          	cmp    r9d,0x2
  402514:	41 b8 01 00 00 00    	mov    r8d,0x1
  40251a:	c7 44 24 e4 00 00 00 	mov    DWORD PTR [rsp-0x1c],0x0
  402521:	00 
  402522:	40 0f 9e c6          	setle  sil
  402526:	40 22 74 24 25       	and    sil,BYTE PTR [rsp+0x25]
  40252b:	85 d2                	test   edx,edx
  40252d:	0f 94 c2             	sete   dl
  402530:	45 31 ed             	xor    r13d,r13d
  402533:	21 f2                	and    edx,esi
  402535:	40 0f b6 ce          	movzx  ecx,sil
  402539:	88 54 24 26          	mov    BYTE PTR [rsp+0x26],dl
  40253d:	e9 0a ea ff ff       	jmp    400f4c <top_step+0x1bc>
  402542:	66 0f 1f 44 00 00    	nop    WORD PTR [rax+rax*1+0x0]
  402548:	44 8b af fc 00 00 00 	mov    r13d,DWORD PTR [rdi+0xfc]
  40254f:	e9 c6 e9 ff ff       	jmp    400f1a <top_step+0x18a>
  402554:	0f 1f 40 00          	nop    DWORD PTR [rax+0x0]
  402558:	22 4c 24 e8          	and    cl,BYTE PTR [rsp-0x18]
  40255c:	8b 74 24 d4          	mov    esi,DWORD PTR [rsp-0x2c]
  402560:	89 74 24 5c          	mov    DWORD PTR [rsp+0x5c],esi
  402564:	0f b6 c9             	movzx  ecx,cl
  402567:	e9 60 e9 ff ff       	jmp    400ecc <top_step+0x13c>
  40256c:	0f 1f 40 00          	nop    DWORD PTR [rax+0x0]
  402570:	8b 77 44             	mov    esi,DWORD PTR [rdi+0x44]
  402573:	c7 44 24 4c 00 00 00 	mov    DWORD PTR [rsp+0x4c],0x0
  40257a:	00 
  40257b:	c7 44 24 98 01 00 00 	mov    DWORD PTR [rsp-0x68],0x1
  402582:	00 
  402583:	89 74 24 04          	mov    DWORD PTR [rsp+0x4],esi
  402587:	e9 78 e8 ff ff       	jmp    400e04 <top_step+0x74>
  40258c:	0f 1f 40 00          	nop    DWORD PTR [rax+0x0]
  402590:	c7 44 24 c4 01 00 00 	mov    DWORD PTR [rsp-0x3c],0x1
  402597:	00 
  402598:	c7 44 24 b8 00 00 00 	mov    DWORD PTR [rsp-0x48],0x0
  40259f:	00 
  4025a0:	e9 8c eb ff ff       	jmp    401131 <top_step+0x3a1>
  4025a5:	0f 1f 00             	nop    DWORD PTR [rax]
  4025a8:	c7 44 24 50 01 00 00 	mov    DWORD PTR [rsp+0x50],0x1
  4025af:	00 
  4025b0:	c7 44 24 d8 00 00 00 	mov    DWORD PTR [rsp-0x28],0x0
  4025b7:	00 
  4025b8:	e9 1e eb ff ff       	jmp    4010db <top_step+0x34b>
  4025bd:	0f 1f 00             	nop    DWORD PTR [rax]
  4025c0:	b9 ff ff ff ff       	mov    ecx,0xffffffff
  4025c5:	c7 44 24 b0 00 00 00 	mov    DWORD PTR [rsp-0x50],0x0
  4025cc:	00 
  4025cd:	c7 44 24 f8 fe ff ff 	mov    DWORD PTR [rsp-0x8],0xfffffffe
  4025d4:	ff 
  4025d5:	89 4c 24 58          	mov    DWORD PTR [rsp+0x58],ecx
  4025d9:	c7 44 24 20 01 00 00 	mov    DWORD PTR [rsp+0x20],0x1
  4025e0:	00 
  4025e1:	c7 44 24 44 ff ff ff 	mov    DWORD PTR [rsp+0x44],0xffffffff
  4025e8:	ff 
  4025e9:	c7 44 24 e0 00 00 00 	mov    DWORD PTR [rsp-0x20],0x0
  4025f0:	00 
  4025f1:	c7 44 24 9c 00 00 00 	mov    DWORD PTR [rsp-0x64],0x0
  4025f8:	00 
  4025f9:	c7 44 24 cc 00 00 00 	mov    DWORD PTR [rsp-0x34],0x0
  402600:	00 
  402601:	e9 59 ea ff ff       	jmp    40105f <top_step+0x2cf>
  402606:	66 2e 0f 1f 84 00 00 	nop    WORD PTR cs:[rax+rax*1+0x0]
  40260d:	00 00 00 
  402610:	8b 4c 24 a4          	mov    ecx,DWORD PTR [rsp-0x5c]
  402614:	85 c9                	test   ecx,ecx
  402616:	75 a8                	jne    4025c0 <top_step+0x1830>
  402618:	bb ff ff ff ff       	mov    ebx,0xffffffff
  40261d:	c7 44 24 b0 00 00 00 	mov    DWORD PTR [rsp-0x50],0x0
  402624:	00 
  402625:	c7 44 24 f8 fe ff ff 	mov    DWORD PTR [rsp-0x8],0xfffffffe
  40262c:	ff 
  40262d:	89 5c 24 58          	mov    DWORD PTR [rsp+0x58],ebx
  402631:	c7 44 24 9c 00 00 00 	mov    DWORD PTR [rsp-0x64],0x0
  402638:	00 
  402639:	89 5c 24 44          	mov    DWORD PTR [rsp+0x44],ebx
  40263d:	89 4c 24 e0          	mov    DWORD PTR [rsp-0x20],ecx
  402641:	c7 44 24 20 01 00 00 	mov    DWORD PTR [rsp+0x20],0x1
  402648:	00 
  402649:	c7 44 24 cc 00 00 00 	mov    DWORD PTR [rsp-0x34],0x0
  402650:	00 
  402651:	e9 09 ea ff ff       	jmp    40105f <top_step+0x2cf>
  402656:	66 2e 0f 1f 84 00 00 	nop    WORD PTR cs:[rax+rax*1+0x0]
  40265d:	00 00 00 
  402660:	83 7c 24 bc 02       	cmp    DWORD PTR [rsp-0x44],0x2
  402665:	0f 85 26 e9 ff ff    	jne    400f91 <top_step+0x201>
  40266b:	c6 44 24 10 00       	mov    BYTE PTR [rsp+0x10],0x0
  402670:	c6 44 24 56 00       	mov    BYTE PTR [rsp+0x56],0x0
  402675:	be 01 00 00 00       	mov    esi,0x1
  40267a:	e9 33 e9 ff ff       	jmp    400fb2 <top_step+0x222>
  40267f:	90                   	nop
  402680:	8b 4c 24 c0          	mov    ecx,DWORD PTR [rsp-0x40]
  402684:	89 4c 24 c0          	mov    DWORD PTR [rsp-0x40],ecx
  402688:	e9 9e f0 ff ff       	jmp    40172b <top_step+0x99b>
  40268d:	0f 1f 00             	nop    DWORD PTR [rax]
  402690:	44 8b 4c 24 d4       	mov    r9d,DWORD PTR [rsp-0x2c]
  402695:	44 89 4c 24 d4       	mov    DWORD PTR [rsp-0x2c],r9d
  40269a:	8b 5c 24 d4          	mov    ebx,DWORD PTR [rsp-0x2c]
  40269e:	83 f8 01             	cmp    eax,0x1
  4026a1:	89 5f 60             	mov    DWORD PTR [rdi+0x60],ebx
  4026a4:	0f 85 22 ee ff ff    	jne    4014cc <top_step+0x73c>
  4026aa:	c6 44 24 5c 01       	mov    BYTE PTR [rsp+0x5c],0x1
  4026af:	c7 44 24 b4 00 00 00 	mov    DWORD PTR [rsp-0x4c],0x0
  4026b6:	00 
  4026b7:	e9 1c ee ff ff       	jmp    4014d8 <top_step+0x748>
  4026bc:	0f 1f 40 00          	nop    DWORD PTR [rax+0x0]
  4026c0:	45 31 c9             	xor    r9d,r9d
  4026c3:	c7 44 24 d4 00 00 00 	mov    DWORD PTR [rsp-0x2c],0x0
  4026ca:	00 
  4026cb:	31 c9                	xor    ecx,ecx
  4026cd:	e9 af ed ff ff       	jmp    401481 <top_step+0x6f1>
  4026d2:	66 0f 1f 44 00 00    	nop    WORD PTR [rax+rax*1+0x0]
  4026d8:	83 7c 24 a0 02       	cmp    DWORD PTR [rsp-0x60],0x2
  4026dd:	0f 85 3b eb ff ff    	jne    40121e <top_step+0x48e>
  4026e3:	8b 4f 20             	mov    ecx,DWORD PTR [rdi+0x20]
  4026e6:	c7 44 24 fc 02 00 00 	mov    DWORD PTR [rsp-0x4],0x2
  4026ed:	00 
  4026ee:	83 7c 24 d0 01       	cmp    DWORD PTR [rsp-0x30],0x1
  4026f3:	0f 85 47 eb ff ff    	jne    401240 <top_step+0x4b0>
  4026f9:	8b 4f 28             	mov    ecx,DWORD PTR [rdi+0x28]
  4026fc:	e9 3f eb ff ff       	jmp    401240 <top_step+0x4b0>
  402701:	0f 1f 80 00 00 00 00 	nop    DWORD PTR [rax+0x0]
  402708:	44 8b 4c 24 a4       	mov    r9d,DWORD PTR [rsp-0x5c]
  40270d:	45 85 c9             	test   r9d,r9d
  402710:	0f 85 42 03 00 00    	jne    402a58 <top_step+0x1cc8>
  402716:	c6 44 24 55 00       	mov    BYTE PTR [rsp+0x55],0x0
  40271b:	c6 44 24 40 00       	mov    BYTE PTR [rsp+0x40],0x0
  402720:	c7 44 24 a0 00 00 00 	mov    DWORD PTR [rsp-0x60],0x0
  402727:	00 
  402728:	c7 44 24 c8 00 00 00 	mov    DWORD PTR [rsp-0x38],0x0
  40272f:	00 
  402730:	c7 44 24 fc 00 00 00 	mov    DWORD PTR [rsp-0x4],0x0
  402737:	00 
  402738:	c7 44 24 dc 00 00 00 	mov    DWORD PTR [rsp-0x24],0x0
  40273f:	00 
  402740:	8b 5c 24 dc          	mov    ebx,DWORD PTR [rsp-0x24]
  402744:	83 c3 01             	add    ebx,0x1
  402747:	89 5c 24 48          	mov    DWORD PTR [rsp+0x48],ebx
  40274b:	e9 a5 ea ff ff       	jmp    4011f5 <top_step+0x465>
  402750:	41 83 fe 01          	cmp    r14d,0x1
  402754:	0f 85 e4 fa ff ff    	jne    40223e <top_step+0x14ae>
  40275a:	41 89 f5             	mov    r13d,esi
  40275d:	41 83 fe 01          	cmp    r14d,0x1
  402761:	44 89 f0             	mov    eax,r14d
  402764:	0f 85 bb 03 00 00    	jne    402b25 <top_step+0x1d95>
  40276a:	45 85 ff             	test   r15d,r15d
  40276d:	89 c1                	mov    ecx,eax
  40276f:	0f 85 e9 fa ff ff    	jne    40225e <top_step+0x14ce>
  402775:	e9 d9 fa ff ff       	jmp    402253 <top_step+0x14c3>
  40277a:	66 0f 1f 44 00 00    	nop    WORD PTR [rax+rax*1+0x0]
  402780:	8b 4c 24 b0          	mov    ecx,DWORD PTR [rsp-0x50]
  402784:	8b 5c 24 a0          	mov    ebx,DWORD PTR [rsp-0x60]
  402788:	89 4c 24 b0          	mov    DWORD PTR [rsp-0x50],ecx
  40278c:	83 fb 01             	cmp    ebx,0x1
  40278f:	0f 85 d9 f1 ff ff    	jne    40196e <top_step+0xbde>
  402795:	c7 44 24 e4 00 00 00 	mov    DWORD PTR [rsp-0x1c],0x0
  40279c:	00 
  40279d:	41 bb 01 00 00 00    	mov    r11d,0x1
  4027a3:	31 c9                	xor    ecx,ecx
  4027a5:	e9 d7 f1 ff ff       	jmp    401981 <top_step+0xbf1>
  4027aa:	66 0f 1f 44 00 00    	nop    WORD PTR [rax+rax*1+0x0]
  4027b0:	8b 54 24 bc          	mov    edx,DWORD PTR [rsp-0x44]
  4027b4:	89 54 24 ac          	mov    DWORD PTR [rsp-0x54],edx
  4027b8:	8b 54 24 ac          	mov    edx,DWORD PTR [rsp-0x54]
  4027bc:	89 54 24 bc          	mov    DWORD PTR [rsp-0x44],edx
  4027c0:	e9 1d f0 ff ff       	jmp    4017e2 <top_step+0xa52>
  4027c5:	0f 1f 00             	nop    DWORD PTR [rax]
  4027c8:	80 7c 24 26 00       	cmp    BYTE PTR [rsp+0x26],0x0
  4027cd:	8b 5c 24 bc          	mov    ebx,DWORD PTR [rsp-0x44]
  4027d1:	41 89 c8             	mov    r8d,ecx
  4027d4:	89 5c 24 ac          	mov    DWORD PTR [rsp-0x54],ebx
  4027d8:	0f 45 f2             	cmovne esi,edx
  4027db:	41 83 fd 02          	cmp    r13d,0x2
  4027df:	0f 85 89 ef ff ff    	jne    40176e <top_step+0x9de>
  4027e5:	8b 74 24 ac          	mov    esi,DWORD PTR [rsp-0x54]
  4027e9:	e9 89 ef ff ff       	jmp    401777 <top_step+0x9e7>
  4027ee:	66 90                	xchg   ax,ax
  4027f0:	c6 44 24 a4 01       	mov    BYTE PTR [rsp-0x5c],0x1
  4027f5:	31 f6                	xor    esi,esi
  4027f7:	45 31 e4             	xor    r12d,r12d
  4027fa:	e9 32 f2 ff ff       	jmp    401a31 <top_step+0xca1>
  4027ff:	90                   	nop
  402800:	0f b6 54 24 f8       	movzx  edx,BYTE PTR [rsp-0x8]
  402805:	45 31 c9             	xor    r9d,r9d
  402808:	88 54 24 a4          	mov    BYTE PTR [rsp-0x5c],dl
  40280c:	ba 01 00 00 00       	mov    edx,0x1
  402811:	e9 f6 f1 ff ff       	jmp    401a0c <top_step+0xc7c>
  402816:	66 2e 0f 1f 84 00 00 	nop    WORD PTR cs:[rax+rax*1+0x0]
  40281d:	00 00 00 
  402820:	44 8b 44 24 c8       	mov    r8d,DWORD PTR [rsp-0x38]
  402825:	44 89 44 24 c8       	mov    DWORD PTR [rsp-0x38],r8d
  40282a:	e9 b2 f2 ff ff       	jmp    401ae1 <top_step+0xd51>
  40282f:	90                   	nop
  402830:	8b 54 24 3c          	mov    edx,DWORD PTR [rsp+0x3c]
  402834:	89 54 24 3c          	mov    DWORD PTR [rsp+0x3c],edx
  402838:	e9 c3 f5 ff ff       	jmp    401e00 <top_step+0x1070>
  40283d:	0f 1f 00             	nop    DWORD PTR [rax]
  402840:	8b 54 24 a0          	mov    edx,DWORD PTR [rsp-0x60]
  402844:	83 7c 24 9c 03       	cmp    DWORD PTR [rsp-0x64],0x3
  402849:	89 54 24 a0          	mov    DWORD PTR [rsp-0x60],edx
  40284d:	0f 85 2d f5 ff ff    	jne    401d80 <top_step+0xff0>
  402853:	31 c9                	xor    ecx,ecx
  402855:	8b 74 24 2c          	mov    esi,DWORD PTR [rsp+0x2c]
  402859:	39 74 24 b8          	cmp    DWORD PTR [rsp-0x48],esi
  40285d:	0f 9c c1             	setl   cl
  402860:	23 4c 24 e8          	and    ecx,DWORD PTR [rsp-0x18]
  402864:	e9 2e f5 ff ff       	jmp    401d97 <top_step+0x1007>
  402869:	0f 1f 80 00 00 00 00 	nop    DWORD PTR [rax+0x0]
  402870:	80 7c 24 26 00       	cmp    BYTE PTR [rsp+0x26],0x0
  402875:	be 01 00 00 00       	mov    esi,0x1
  40287a:	8b 4c 24 fc          	mov    ecx,DWORD PTR [rsp-0x4]
  40287e:	0f 44 74 24 a0       	cmove  esi,DWORD PTR [rsp-0x60]
  402883:	41 b8 01 00 00 00    	mov    r8d,0x1
  402889:	e9 74 f4 ff ff       	jmp    401d02 <top_step+0xf72>
  40288e:	66 90                	xchg   ax,ax
  402890:	80 7c 24 26 00       	cmp    BYTE PTR [rsp+0x26],0x0
  402895:	44 8b 44 24 9c       	mov    r8d,DWORD PTR [rsp-0x64]
  40289a:	44 0f 45 44 24 30    	cmovne r8d,DWORD PTR [rsp+0x30]
  4028a0:	e9 a2 f5 ff ff       	jmp    401e47 <top_step+0x10b7>
  4028a5:	0f 1f 00             	nop    DWORD PTR [rax]
  4028a8:	80 7c 24 26 00       	cmp    BYTE PTR [rsp+0x26],0x0
  4028ad:	41 bb 02 00 00 00    	mov    r11d,0x2
  4028b3:	44 89 e9             	mov    ecx,r13d
  4028b6:	be 02 00 00 00       	mov    esi,0x2
  4028bb:	45 0f 44 dd          	cmove  r11d,r13d
  4028bf:	e9 16 f9 ff ff       	jmp    4021da <top_step+0x144a>
  4028c4:	0f 1f 40 00          	nop    DWORD PTR [rax+0x0]
  4028c8:	be 02 00 00 00       	mov    esi,0x2
  4028cd:	83 fe 02             	cmp    esi,0x2
  4028d0:	0f 94 c2             	sete   dl
  4028d3:	41 20 d2             	and    r10b,dl
  4028d6:	44 88 54 24 56       	mov    BYTE PTR [rsp+0x56],r10b
  4028db:	0f 84 cd e6 ff ff    	je     400fae <top_step+0x21e>
  4028e1:	be 02 00 00 00       	mov    esi,0x2
  4028e6:	45 31 d2             	xor    r10d,r10d
  4028e9:	e9 c8 e6 ff ff       	jmp    400fb6 <top_step+0x226>
  4028ee:	66 90                	xchg   ax,ax
  4028f0:	41 89 c8             	mov    r8d,ecx
  4028f3:	e9 ff f7 ff ff       	jmp    4020f7 <top_step+0x1367>
  4028f8:	0f 1f 84 00 00 00 00 	nop    DWORD PTR [rax+rax*1+0x0]
  4028ff:	00 
  402900:	41 89 f1             	mov    r9d,esi
  402903:	e9 94 f8 ff ff       	jmp    40219c <top_step+0x140c>
  402908:	0f 1f 84 00 00 00 00 	nop    DWORD PTR [rax+rax*1+0x0]
  40290f:	00 
  402910:	44 89 c9             	mov    ecx,r9d
  402913:	e9 47 f6 ff ff       	jmp    401f5f <top_step+0x11cf>
  402918:	0f 1f 84 00 00 00 00 	nop    DWORD PTR [rax+rax*1+0x0]
  40291f:	00 
  402920:	44 89 44 24 cc       	mov    DWORD PTR [rsp-0x34],r8d
  402925:	e9 c8 f6 ff ff       	jmp    401ff2 <top_step+0x1262>
  40292a:	66 0f 1f 44 00 00    	nop    WORD PTR [rax+rax*1+0x0]
  402930:	44 89 5c 24 08       	mov    DWORD PTR [rsp+0x8],r11d
  402935:	e9 3a ec ff ff       	jmp    401574 <top_step+0x7e4>
  40293a:	66 0f 1f 44 00 00    	nop    WORD PTR [rax+rax*1+0x0]
  402940:	89 ca                	mov    edx,ecx
  402942:	e9 87 ed ff ff       	jmp    4016ce <top_step+0x93e>
  402947:	66 0f 1f 84 00 00 00 	nop    WORD PTR [rax+rax*1+0x0]
  40294e:	00 00 
  402950:	89 54 24 0c          	mov    DWORD PTR [rsp+0xc],edx
  402954:	e9 d0 ec ff ff       	jmp    401629 <top_step+0x899>
  402959:	0f 1f 80 00 00 00 00 	nop    DWORD PTR [rax+0x0]
  402960:	44 89 4c 24 d0       	mov    DWORD PTR [rsp-0x30],r9d
  402965:	e9 08 e8 ff ff       	jmp    401172 <top_step+0x3e2>
  40296a:	66 0f 1f 44 00 00    	nop    WORD PTR [rax+rax*1+0x0]
  402970:	89 54 24 04          	mov    DWORD PTR [rsp+0x4],edx
  402974:	e9 d4 ea ff ff       	jmp    40144d <top_step+0x6bd>
  402979:	0f 1f 80 00 00 00 00 	nop    DWORD PTR [rax+0x0]
  402980:	c7 44 24 a8 00 00 00 	mov    DWORD PTR [rsp-0x58],0x0
  402987:	00 
  402988:	e9 7b e9 ff ff       	jmp    401308 <top_step+0x578>
  40298d:	0f 1f 00             	nop    DWORD PTR [rax]
  402990:	83 7c 24 fc 02       	cmp    DWORD PTR [rsp-0x4],0x2
  402995:	8b 4c 24 a8          	mov    ecx,DWORD PTR [rsp-0x58]
  402999:	0f 85 96 e8 ff ff    	jne    401235 <top_step+0x4a5>
  40299f:	8b 4f 20             	mov    ecx,DWORD PTR [rdi+0x20]
  4029a2:	c7 44 24 fc 02 00 00 	mov    DWORD PTR [rsp-0x4],0x2
  4029a9:	00 
  4029aa:	e9 3f fd ff ff       	jmp    4026ee <top_step+0x195e>
  4029af:	90                   	nop
  4029b0:	83 7c 24 58 01       	cmp    DWORD PTR [rsp+0x58],0x1
  4029b5:	0f 86 e5 01 00 00    	jbe    402ba0 <top_step+0x1e10>
  4029bb:	c7 44 24 ac 00 00 00 	mov    DWORD PTR [rsp-0x54],0x0
  4029c2:	00 
  4029c3:	e9 b5 ee ff ff       	jmp    40187d <top_step+0xaed>
  4029c8:	0f 1f 84 00 00 00 00 	nop    DWORD PTR [rax+rax*1+0x0]
  4029cf:	00 
  4029d0:	89 14 24             	mov    DWORD PTR [rsp],edx
  4029d3:	e9 8c ee ff ff       	jmp    401864 <top_step+0xad4>
  4029d8:	0f 1f 84 00 00 00 00 	nop    DWORD PTR [rax+rax*1+0x0]
  4029df:	00 
  4029e0:	44 89 4c 24 a4       	mov    DWORD PTR [rsp-0x5c],r9d
  4029e5:	e9 dc f2 ff ff       	jmp    401cc6 <top_step+0xf36>
  4029ea:	66 0f 1f 44 00 00    	nop    WORD PTR [rax+rax*1+0x0]
  4029f0:	89 f2                	mov    edx,esi
  4029f2:	e9 55 f1 ff ff       	jmp    401b4c <top_step+0xdbc>
  4029f7:	66 0f 1f 84 00 00 00 	nop    WORD PTR [rax+rax*1+0x0]
  4029fe:	00 00 
  402a00:	45 89 c4             	mov    r12d,r8d
  402a03:	e9 c3 f1 ff ff       	jmp    401bcb <top_step+0xe3b>
  402a08:	0f 1f 84 00 00 00 00 	nop    DWORD PTR [rax+rax*1+0x0]
  402a0f:	00 
  402a10:	48 83 7c 24 90 00    	cmp    QWORD PTR [rsp-0x70],0x0
  402a16:	0f b6 54 24 25       	movzx  edx,BYTE PTR [rsp+0x25]
  402a1b:	0f 94 c1             	sete   cl
  402a1e:	83 f2 01             	xor    edx,0x1
  402a21:	21 ca                	and    edx,ecx
  402a23:	22 54 24 e8          	and    dl,BYTE PTR [rsp-0x18]
  402a27:	0f b6 d2             	movzx  edx,dl
  402a2a:	e9 a3 f3 ff ff       	jmp    401dd2 <top_step+0x1042>
  402a2f:	90                   	nop
  402a30:	c6 44 24 56 01       	mov    BYTE PTR [rsp+0x56],0x1
  402a35:	45 31 c0             	xor    r8d,r8d
  402a38:	e9 9b ef ff ff       	jmp    4019d8 <top_step+0xc48>
  402a3d:	0f 1f 00             	nop    DWORD PTR [rax]
  402a40:	44 8b 44 24 9c       	mov    r8d,DWORD PTR [rsp-0x64]
  402a45:	89 54 24 30          	mov    DWORD PTR [rsp+0x30],edx
  402a49:	89 4c 24 d0          	mov    DWORD PTR [rsp-0x30],ecx
  402a4d:	e9 f5 f3 ff ff       	jmp    401e47 <top_step+0x10b7>
  402a52:	66 0f 1f 44 00 00    	nop    WORD PTR [rax+rax*1+0x0]
  402a58:	83 7f 24 01          	cmp    DWORD PTR [rdi+0x24],0x1
  402a5c:	41 0f 9e c3          	setle  r11b
  402a60:	41 08 cb             	or     r11b,cl
  402a63:	44 88 5c 24 40       	mov    BYTE PTR [rsp+0x40],r11b
  402a68:	0f 84 d2 00 00 00    	je     402b40 <top_step+0x1db0>
  402a6e:	0f b6 4c 24 40       	movzx  ecx,BYTE PTR [rsp+0x40]
  402a73:	c7 44 24 c8 00 00 00 	mov    DWORD PTR [rsp-0x38],0x0
  402a7a:	00 
  402a7b:	c6 44 24 55 00       	mov    BYTE PTR [rsp+0x55],0x0
  402a80:	c7 44 24 48 01 00 00 	mov    DWORD PTR [rsp+0x48],0x1
  402a87:	00 
  402a88:	c7 44 24 a0 00 00 00 	mov    DWORD PTR [rsp-0x60],0x0
  402a8f:	00 
  402a90:	c7 44 24 dc 00 00 00 	mov    DWORD PTR [rsp-0x24],0x0
  402a97:	00 
  402a98:	c6 44 24 40 00       	mov    BYTE PTR [rsp+0x40],0x0
  402a9d:	88 4c 24 27          	mov    BYTE PTR [rsp+0x27],cl
  402aa1:	e9 83 e7 ff ff       	jmp    401229 <top_step+0x499>
  402aa6:	66 2e 0f 1f 84 00 00 	nop    WORD PTR cs:[rax+rax*1+0x0]
  402aad:	00 00 00 
  402ab0:	c7 44 24 f8 fe ff ff 	mov    DWORD PTR [rsp-0x8],0xfffffffe
  402ab7:	ff 
  402ab8:	c7 44 24 58 ff ff ff 	mov    DWORD PTR [rsp+0x58],0xffffffff
  402abf:	ff 
  402ac0:	c7 44 24 b0 00 00 00 	mov    DWORD PTR [rsp-0x50],0x0
  402ac7:	00 
  402ac8:	e9 4d e5 ff ff       	jmp    40101a <top_step+0x28a>
  402acd:	0f 1f 00             	nop    DWORD PTR [rax]
  402ad0:	c7 44 24 4c 00 00 00 	mov    DWORD PTR [rsp+0x4c],0x0
  402ad7:	00 
  402ad8:	c7 44 24 98 01 00 00 	mov    DWORD PTR [rsp-0x68],0x1
  402adf:	00 
  402ae0:	e9 1f e3 ff ff       	jmp    400e04 <top_step+0x74>
  402ae5:	0f 1f 00             	nop    DWORD PTR [rax]
  402ae8:	45 85 ff             	test   r15d,r15d
  402aeb:	74 23                	je     402b10 <top_step+0x1d80>
  402aed:	41 83 fe 02          	cmp    r14d,0x2
  402af1:	b8 01 00 00 00       	mov    eax,0x1
  402af6:	0f 85 61 fc ff ff    	jne    40275d <top_step+0x19cd>
  402afc:	45 85 ff             	test   r15d,r15d
  402aff:	89 c1                	mov    ecx,eax
  402b01:	0f 85 57 f7 ff ff    	jne    40225e <top_step+0x14ce>
  402b07:	e9 47 f7 ff ff       	jmp    402253 <top_step+0x14c3>
  402b0c:	0f 1f 40 00          	nop    DWORD PTR [rax+0x0]
  402b10:	41 83 fe 02          	cmp    r14d,0x2
  402b14:	74 5a                	je     402b70 <top_step+0x1de0>
  402b16:	41 83 fe 01          	cmp    r14d,0x1
  402b1a:	b8 02 00 00 00       	mov    eax,0x2
  402b1f:	0f 84 45 fc ff ff    	je     40276a <top_step+0x19da>
  402b25:	45 85 ff             	test   r15d,r15d
  402b28:	44 89 f1             	mov    ecx,r14d
  402b2b:	b8 01 00 00 00       	mov    eax,0x1
  402b30:	0f 85 22 f7 ff ff    	jne    402258 <top_step+0x14c8>
  402b36:	e9 18 f7 ff ff       	jmp    402253 <top_step+0x14c3>
  402b3b:	0f 1f 44 00 00       	nop    DWORD PTR [rax+rax*1+0x0]
  402b40:	c6 44 24 55 00       	mov    BYTE PTR [rsp+0x55],0x0
  402b45:	c6 44 24 27 00       	mov    BYTE PTR [rsp+0x27],0x0
  402b4a:	c7 44 24 c8 00 00 00 	mov    DWORD PTR [rsp-0x38],0x0
  402b51:	00 
  402b52:	c7 44 24 48 01 00 00 	mov    DWORD PTR [rsp+0x48],0x1
  402b59:	00 
  402b5a:	c7 44 24 a0 00 00 00 	mov    DWORD PTR [rsp-0x60],0x0
  402b61:	00 
  402b62:	c7 44 24 dc 00 00 00 	mov    DWORD PTR [rsp-0x24],0x0
  402b69:	00 
  402b6a:	e9 ba e6 ff ff       	jmp    401229 <top_step+0x499>
  402b6f:	90                   	nop
  402b70:	b9 02 00 00 00       	mov    ecx,0x2
  402b75:	e9 d9 f6 ff ff       	jmp    402253 <top_step+0x14c3>
  402b7a:	66 0f 1f 44 00 00    	nop    WORD PTR [rax+rax*1+0x0]
  402b80:	45 89 d5             	mov    r13d,r10d
  402b83:	eb 91                	jmp    402b16 <top_step+0x1d86>
  402b85:	0f 1f 00             	nop    DWORD PTR [rax]
  402b88:	8b 4c 24 a8          	mov    ecx,DWORD PTR [rsp-0x58]
  402b8c:	c7 44 24 fc 01 00 00 	mov    DWORD PTR [rsp-0x4],0x1
  402b93:	00 
  402b94:	e9 9c e6 ff ff       	jmp    401235 <top_step+0x4a5>
  402b99:	0f 1f 80 00 00 00 00 	nop    DWORD PTR [rax+0x0]
  402ba0:	8b 4c 24 b0          	mov    ecx,DWORD PTR [rsp-0x50]
  402ba4:	45 31 c0             	xor    r8d,r8d
  402ba7:	c7 44 24 ac 00 00 00 	mov    DWORD PTR [rsp-0x54],0x0
  402bae:	00 
  402baf:	e9 e7 ec ff ff       	jmp    40189b <top_step+0xb0b>
  402bb4:	41 83 f9 03          	cmp    r9d,0x3
  402bb8:	c7 44 24 ac 02 00 00 	mov    DWORD PTR [rsp-0x54],0x2
  402bbf:	00 
  402bc0:	0f 94 44 24 34       	sete   BYTE PTR [rsp+0x34]
  402bc5:	45 31 d2             	xor    r10d,r10d
  402bc8:	e9 20 f9 ff ff       	jmp    4024ed <top_step+0x175d>
  402bcd:	8b 54 24 c0          	mov    edx,DWORD PTR [rsp-0x40]
  402bd1:	8d 72 ff             	lea    esi,[rdx-0x1]
  402bd4:	83 ea 02             	sub    edx,0x2
  402bd7:	89 14 24             	mov    DWORD PTR [rsp],edx
  402bda:	8b 97 94 00 00 00    	mov    edx,DWORD PTR [rdi+0x94]
  402be0:	89 74 24 60          	mov    DWORD PTR [rsp+0x60],esi
  402be4:	89 54 24 bc          	mov    DWORD PTR [rsp-0x44],edx
  402be8:	83 ea 01             	sub    edx,0x1
  402beb:	89 54 24 64          	mov    DWORD PTR [rsp+0x64],edx
  402bef:	e9 7c e3 ff ff       	jmp    400f70 <top_step+0x1e0>
  402bf4:	31 f6                	xor    esi,esi
  402bf6:	45 31 e4             	xor    r12d,r12d
  402bf9:	e9 33 ee ff ff       	jmp    401a31 <top_step+0xca1>
  402bfe:	8b 54 24 28          	mov    edx,DWORD PTR [rsp+0x28]
  402c02:	e9 2d fc ff ff       	jmp    402834 <top_step+0x1aa4>
  402c07:	66 0f 1f 84 00 00 00 	nop    WORD PTR [rax+rax*1+0x0]
  402c0e:	00 00 

0000000000402c10 <assign_inputs>:
  402c10:	8b 06                	mov    eax,DWORD PTR [rsi]
  402c12:	89 47 08             	mov    DWORD PTR [rdi+0x8],eax
  402c15:	8b 46 04             	mov    eax,DWORD PTR [rsi+0x4]
  402c18:	89 47 0c             	mov    DWORD PTR [rdi+0xc],eax
  402c1b:	8b 46 08             	mov    eax,DWORD PTR [rsi+0x8]
  402c1e:	89 47 10             	mov    DWORD PTR [rdi+0x10],eax
  402c21:	8b 46 0c             	mov    eax,DWORD PTR [rsi+0xc]
  402c24:	89 47 14             	mov    DWORD PTR [rdi+0x14],eax
  402c27:	8b 46 10             	mov    eax,DWORD PTR [rsi+0x10]
  402c2a:	89 47 18             	mov    DWORD PTR [rdi+0x18],eax
  402c2d:	8b 46 14             	mov    eax,DWORD PTR [rsi+0x14]
  402c30:	89 47 1c             	mov    DWORD PTR [rdi+0x1c],eax
  402c33:	8b 46 18             	mov    eax,DWORD PTR [rsi+0x18]
  402c36:	89 47 20             	mov    DWORD PTR [rdi+0x20],eax
  402c39:	8b 46 1c             	mov    eax,DWORD PTR [rsi+0x1c]
  402c3c:	89 47 24             	mov    DWORD PTR [rdi+0x24],eax
  402c3f:	8b 46 20             	mov    eax,DWORD PTR [rsi+0x20]
  402c42:	89 47 28             	mov    DWORD PTR [rdi+0x28],eax
  402c45:	8b 46 24             	mov    eax,DWORD PTR [rsi+0x24]
  402c48:	89 47 2c             	mov    DWORD PTR [rdi+0x2c],eax
  402c4b:	8b 46 28             	mov    eax,DWORD PTR [rsi+0x28]
  402c4e:	89 47 30             	mov    DWORD PTR [rdi+0x30],eax
  402c51:	8b 46 2c             	mov    eax,DWORD PTR [rsi+0x2c]
  402c54:	89 47 34             	mov    DWORD PTR [rdi+0x34],eax
  402c57:	8b 46 30             	mov    eax,DWORD PTR [rsi+0x30]
  402c5a:	89 47 38             	mov    DWORD PTR [rdi+0x38],eax
  402c5d:	8b 46 34             	mov    eax,DWORD PTR [rsi+0x34]
  402c60:	89 47 3c             	mov    DWORD PTR [rdi+0x3c],eax
  402c63:	8b 46 38             	mov    eax,DWORD PTR [rsi+0x38]
  402c66:	89 47 40             	mov    DWORD PTR [rdi+0x40],eax
  402c69:	8b 46 3c             	mov    eax,DWORD PTR [rsi+0x3c]
  402c6c:	89 47 44             	mov    DWORD PTR [rdi+0x44],eax
  402c6f:	8b 46 40             	mov    eax,DWORD PTR [rsi+0x40]
  402c72:	89 47 48             	mov    DWORD PTR [rdi+0x48],eax
  402c75:	8b 46 44             	mov    eax,DWORD PTR [rsi+0x44]
  402c78:	89 47 4c             	mov    DWORD PTR [rdi+0x4c],eax
  402c7b:	8b 46 48             	mov    eax,DWORD PTR [rsi+0x48]
  402c7e:	89 47 50             	mov    DWORD PTR [rdi+0x50],eax
  402c81:	8b 46 4c             	mov    eax,DWORD PTR [rsi+0x4c]
  402c84:	89 47 54             	mov    DWORD PTR [rdi+0x54],eax
  402c87:	c3                   	ret    
  402c88:	0f 1f 84 00 00 00 00 	nop    DWORD PTR [rax+rax*1+0x0]
  402c8f:	00 

0000000000402c90 <bool_lit_toint>:
  402c90:	48 89 fa             	mov    rdx,rdi
  402c93:	b9 05 00 00 00       	mov    ecx,0x5
  402c98:	bf a4 31 40 00       	mov    edi,0x4031a4
  402c9d:	48 89 d6             	mov    rsi,rdx
  402ca0:	b8 01 00 00 00       	mov    eax,0x1
  402ca5:	f3 a6                	repz cmps BYTE PTR ds:[rsi],BYTE PTR es:[rdi]
  402ca7:	40 0f 97 c6          	seta   sil
  402cab:	0f 92 c1             	setb   cl
  402cae:	40 38 ce             	cmp    sil,cl
  402cb1:	74 3a                	je     402ced <bool_lit_toint+0x5d>
  402cb3:	b9 06 00 00 00       	mov    ecx,0x6
  402cb8:	bf a9 31 40 00       	mov    edi,0x4031a9
  402cbd:	48 89 d6             	mov    rsi,rdx
  402cc0:	f3 a6                	repz cmps BYTE PTR ds:[rsi],BYTE PTR es:[rdi]
  402cc2:	0f 97 c0             	seta   al
  402cc5:	0f 92 c1             	setb   cl
  402cc8:	29 c8                	sub    eax,ecx
  402cca:	0f be c0             	movsx  eax,al
  402ccd:	85 c0                	test   eax,eax
  402ccf:	74 1c                	je     402ced <bool_lit_toint+0x5d>
  402cd1:	0f b6 02             	movzx  eax,BYTE PTR [rdx]
  402cd4:	3c 74                	cmp    al,0x74
  402cd6:	74 10                	je     402ce8 <bool_lit_toint+0x58>
  402cd8:	3c 66                	cmp    al,0x66
  402cda:	0f 95 c0             	setne  al
  402cdd:	0f b6 c0             	movzx  eax,al
  402ce0:	f7 d8                	neg    eax
  402ce2:	c3                   	ret    
  402ce3:	0f 1f 44 00 00       	nop    DWORD PTR [rax+rax*1+0x0]
  402ce8:	b8 01 00 00 00       	mov    eax,0x1
  402ced:	f3 c3                	repz ret 
  402cef:	90                   	nop

0000000000402cf0 <extract_double>:
  402cf0:	53                   	push   rbx
  402cf1:	48 89 fb             	mov    rbx,rdi
  402cf4:	48 83 ec 40          	sub    rsp,0x40
  402cf8:	64 48 8b 04 25 28 00 	mov    rax,QWORD PTR fs:0x28
  402cff:	00 00 
  402d01:	48 89 44 24 38       	mov    QWORD PTR [rsp+0x38],rax
  402d06:	31 c0                	xor    eax,eax
  402d08:	e8 b3 d9 ff ff       	call   4006c0 <strlen@plt>
  402d0d:	31 d2                	xor    edx,edx
  402d0f:	31 ff                	xor    edi,edi
  402d11:	45 31 c0             	xor    r8d,r8d
  402d14:	31 f6                	xor    esi,esi
  402d16:	eb 17                	jmp    402d2f <extract_double+0x3f>
  402d18:	0f 1f 84 00 00 00 00 	nop    DWORD PTR [rax+rax*1+0x0]
  402d1f:	00 
  402d20:	4c 63 ce             	movsxd r9,esi
  402d23:	83 c6 01             	add    esi,0x1
  402d26:	42 88 4c 0c 10       	mov    BYTE PTR [rsp+r9*1+0x10],cl
  402d2b:	48 83 c2 01          	add    rdx,0x1
  402d2f:	48 39 c2             	cmp    rdx,rax
  402d32:	73 2c                	jae    402d60 <extract_double+0x70>
  402d34:	0f b6 0c 13          	movzx  ecx,BYTE PTR [rbx+rdx*1]
  402d38:	80 f9 2f             	cmp    cl,0x2f
  402d3b:	74 1b                	je     402d58 <extract_double+0x68>
  402d3d:	85 ff                	test   edi,edi
  402d3f:	74 df                	je     402d20 <extract_double+0x30>
  402d41:	49 63 f8             	movsxd rdi,r8d
  402d44:	41 83 c0 01          	add    r8d,0x1
  402d48:	88 4c 3c 20          	mov    BYTE PTR [rsp+rdi*1+0x20],cl
  402d4c:	bf 01 00 00 00       	mov    edi,0x1
  402d51:	eb d8                	jmp    402d2b <extract_double+0x3b>
  402d53:	0f 1f 44 00 00       	nop    DWORD PTR [rax+rax*1+0x0]
  402d58:	bf 01 00 00 00       	mov    edi,0x1
  402d5d:	eb cc                	jmp    402d2b <extract_double+0x3b>
  402d5f:	90                   	nop
  402d60:	48 63 f6             	movsxd rsi,esi
  402d63:	c6 44 34 10 00       	mov    BYTE PTR [rsp+rsi*1+0x10],0x0
  402d68:	c6 44 34 20 00       	mov    BYTE PTR [rsp+rsi*1+0x20],0x0
  402d6d:	31 f6                	xor    esi,esi
  402d6f:	85 ff                	test   edi,edi
  402d71:	48 8d 7c 24 10       	lea    rdi,[rsp+0x10]
  402d76:	75 20                	jne    402d98 <extract_double+0xa8>
  402d78:	e8 23 d9 ff ff       	call   4006a0 <strtod@plt>
  402d7d:	48 8b 44 24 38       	mov    rax,QWORD PTR [rsp+0x38]
  402d82:	64 48 33 04 25 28 00 	xor    rax,QWORD PTR fs:0x28
  402d89:	00 00 
  402d8b:	75 32                	jne    402dbf <extract_double+0xcf>
  402d8d:	48 83 c4 40          	add    rsp,0x40
  402d91:	5b                   	pop    rbx
  402d92:	c3                   	ret    
  402d93:	0f 1f 44 00 00       	nop    DWORD PTR [rax+rax*1+0x0]
  402d98:	e8 03 d9 ff ff       	call   4006a0 <strtod@plt>
  402d9d:	48 8d 7c 24 20       	lea    rdi,[rsp+0x20]
  402da2:	31 f6                	xor    esi,esi
  402da4:	f2 0f 11 44 24 08    	movsd  QWORD PTR [rsp+0x8],xmm0
  402daa:	e8 f1 d8 ff ff       	call   4006a0 <strtod@plt>
  402daf:	f2 0f 10 4c 24 08    	movsd  xmm1,QWORD PTR [rsp+0x8]
  402db5:	f2 0f 5e c8          	divsd  xmm1,xmm0
  402db9:	66 0f 28 c1          	movapd xmm0,xmm1
  402dbd:	eb be                	jmp    402d7d <extract_double+0x8d>
  402dbf:	e8 0c d9 ff ff       	call   4006d0 <__stack_chk_fail@plt>
  402dc4:	66 90                	xchg   ax,ax
  402dc6:	66 2e 0f 1f 84 00 00 	nop    WORD PTR cs:[rax+rax*1+0x0]
  402dcd:	00 00 00 

0000000000402dd0 <scan_input>:
  402dd0:	41 57                	push   r15
  402dd2:	41 56                	push   r14
  402dd4:	41 55                	push   r13
  402dd6:	41 54                	push   r12
  402dd8:	55                   	push   rbp
  402dd9:	53                   	push   rbx
  402dda:	48 89 f3             	mov    rbx,rsi
  402ddd:	be e8 31 40 00       	mov    esi,0x4031e8
  402de2:	48 81 ec b8 00 00 00 	sub    rsp,0xb8
  402de9:	48 8d ac 24 a0 00 00 	lea    rbp,[rsp+0xa0]
  402df0:	00 
  402df1:	64 48 8b 04 25 28 00 	mov    rax,QWORD PTR fs:0x28
  402df8:	00 00 
  402dfa:	48 89 84 24 a8 00 00 	mov    QWORD PTR [rsp+0xa8],rax
  402e01:	00 
  402e02:	31 c0                	xor    eax,eax
  402e04:	55                   	push   rbp
  402e05:	48 8d 44 24 54       	lea    rax,[rsp+0x54]
  402e0a:	50                   	push   rax
  402e0b:	4c 8d a4 24 a0 00 00 	lea    r12,[rsp+0xa0]
  402e12:	00 
  402e13:	41 54                	push   r12
  402e15:	4c 8d ac 24 98 00 00 	lea    r13,[rsp+0x98]
  402e1c:	00 
  402e1d:	41 55                	push   r13
  402e1f:	4c 8d b4 24 90 00 00 	lea    r14,[rsp+0x90]
  402e26:	00 
  402e27:	41 56                	push   r14
  402e29:	4c 8d bc 24 88 00 00 	lea    r15,[rsp+0x88]
  402e30:	00 
  402e31:	41 57                	push   r15
  402e33:	4c 8d 94 24 80 00 00 	lea    r10,[rsp+0x80]
  402e3a:	00 
  402e3b:	41 52                	push   r10
  402e3d:	48 8d 84 24 80 00 00 	lea    rax,[rsp+0x80]
  402e44:	00 
  402e45:	4c 89 54 24 40       	mov    QWORD PTR [rsp+0x40],r10
  402e4a:	50                   	push   rax
  402e4b:	48 8d 84 24 84 00 00 	lea    rax,[rsp+0x84]
  402e52:	00 
  402e53:	50                   	push   rax
  402e54:	48 8d 84 24 88 00 00 	lea    rax,[rsp+0x88]
  402e5b:	00 
  402e5c:	50                   	push   rax
  402e5d:	48 8d 84 24 8c 00 00 	lea    rax,[rsp+0x8c]
  402e64:	00 
  402e65:	50                   	push   rax
  402e66:	48 8d 84 24 90 00 00 	lea    rax,[rsp+0x90]
  402e6d:	00 
  402e6e:	50                   	push   rax
  402e6f:	48 8d 84 24 94 00 00 	lea    rax,[rsp+0x94]
  402e76:	00 
  402e77:	50                   	push   rax
  402e78:	48 8d 84 24 98 00 00 	lea    rax,[rsp+0x98]
  402e7f:	00 
  402e80:	50                   	push   rax
  402e81:	48 8d 84 24 9c 00 00 	lea    rax,[rsp+0x9c]
  402e88:	00 
  402e89:	50                   	push   rax
  402e8a:	48 8d 84 24 a0 00 00 	lea    rax,[rsp+0xa0]
  402e91:	00 
  402e92:	50                   	push   rax
  402e93:	31 c0                	xor    eax,eax
  402e95:	4c 8d 8c 24 a4 00 00 	lea    r9,[rsp+0xa4]
  402e9c:	00 
  402e9d:	4c 8d 84 24 a0 00 00 	lea    r8,[rsp+0xa0]
  402ea4:	00 
  402ea5:	48 8d 8c 24 9c 00 00 	lea    rcx,[rsp+0x9c]
  402eac:	00 
  402ead:	48 8d 94 24 98 00 00 	lea    rdx,[rsp+0x98]
  402eb4:	00 
  402eb5:	e8 66 d8 ff ff       	call   400720 <__isoc99_sscanf@plt>
  402eba:	8b 84 24 98 00 00 00 	mov    eax,DWORD PTR [rsp+0x98]
  402ec1:	89 43 44             	mov    DWORD PTR [rbx+0x44],eax
  402ec4:	8b 84 24 9c 00 00 00 	mov    eax,DWORD PTR [rsp+0x9c]
  402ecb:	89 43 3c             	mov    DWORD PTR [rbx+0x3c],eax
  402ece:	8b 84 24 a0 00 00 00 	mov    eax,DWORD PTR [rsp+0xa0]
  402ed5:	89 43 34             	mov    DWORD PTR [rbx+0x34],eax
  402ed8:	8b 84 24 a4 00 00 00 	mov    eax,DWORD PTR [rsp+0xa4]
  402edf:	89 43 14             	mov    DWORD PTR [rbx+0x14],eax
  402ee2:	8b 84 24 a8 00 00 00 	mov    eax,DWORD PTR [rsp+0xa8]
  402ee9:	89 43 18             	mov    DWORD PTR [rbx+0x18],eax
  402eec:	8b 84 24 ac 00 00 00 	mov    eax,DWORD PTR [rsp+0xac]
  402ef3:	89 43 40             	mov    DWORD PTR [rbx+0x40],eax
  402ef6:	8b 84 24 b0 00 00 00 	mov    eax,DWORD PTR [rsp+0xb0]
  402efd:	89 43 20             	mov    DWORD PTR [rbx+0x20],eax
  402f00:	8b 84 24 b4 00 00 00 	mov    eax,DWORD PTR [rsp+0xb4]
  402f07:	89 43 1c             	mov    DWORD PTR [rbx+0x1c],eax
  402f0a:	8b 84 24 b8 00 00 00 	mov    eax,DWORD PTR [rsp+0xb8]
  402f11:	89 43 30             	mov    DWORD PTR [rbx+0x30],eax
  402f14:	8b 84 24 bc 00 00 00 	mov    eax,DWORD PTR [rsp+0xbc]
  402f1b:	89 43 28             	mov    DWORD PTR [rbx+0x28],eax
  402f1e:	8b 84 24 c0 00 00 00 	mov    eax,DWORD PTR [rsp+0xc0]
  402f25:	89 43 2c             	mov    DWORD PTR [rbx+0x2c],eax
  402f28:	8b 84 24 c4 00 00 00 	mov    eax,DWORD PTR [rsp+0xc4]
  402f2f:	89 43 24             	mov    DWORD PTR [rbx+0x24],eax
  402f32:	8b 84 24 c8 00 00 00 	mov    eax,DWORD PTR [rsp+0xc8]
  402f39:	48 83 ec 80          	sub    rsp,0xffffffffffffff80
  402f3d:	4c 8b 54 24 08       	mov    r10,QWORD PTR [rsp+0x8]
  402f42:	89 43 38             	mov    DWORD PTR [rbx+0x38],eax
  402f45:	4c 89 d7             	mov    rdi,r10
  402f48:	e8 43 fd ff ff       	call   402c90 <bool_lit_toint>
  402f4d:	4c 89 ff             	mov    rdi,r15
  402f50:	89 43 0c             	mov    DWORD PTR [rbx+0xc],eax
  402f53:	e8 38 fd ff ff       	call   402c90 <bool_lit_toint>
  402f58:	4c 89 f7             	mov    rdi,r14
  402f5b:	89 43 08             	mov    DWORD PTR [rbx+0x8],eax
  402f5e:	e8 2d fd ff ff       	call   402c90 <bool_lit_toint>
  402f63:	4c 89 ef             	mov    rdi,r13
  402f66:	89 43 04             	mov    DWORD PTR [rbx+0x4],eax
  402f69:	e8 22 fd ff ff       	call   402c90 <bool_lit_toint>
  402f6e:	4c 89 e7             	mov    rdi,r12
  402f71:	89 43 10             	mov    DWORD PTR [rbx+0x10],eax
  402f74:	e8 17 fd ff ff       	call   402c90 <bool_lit_toint>
  402f79:	89 43 48             	mov    DWORD PTR [rbx+0x48],eax
  402f7c:	8b 44 24 4c          	mov    eax,DWORD PTR [rsp+0x4c]
  402f80:	48 89 ef             	mov    rdi,rbp
  402f83:	89 43 4c             	mov    DWORD PTR [rbx+0x4c],eax
  402f86:	e8 05 fd ff ff       	call   402c90 <bool_lit_toint>
  402f8b:	89 03                	mov    DWORD PTR [rbx],eax
  402f8d:	48 8b 84 24 a8 00 00 	mov    rax,QWORD PTR [rsp+0xa8]
  402f94:	00 
  402f95:	64 48 33 04 25 28 00 	xor    rax,QWORD PTR fs:0x28
  402f9c:	00 00 
  402f9e:	75 12                	jne    402fb2 <scan_input+0x1e2>
  402fa0:	48 81 c4 b8 00 00 00 	add    rsp,0xb8
  402fa7:	5b                   	pop    rbx
  402fa8:	5d                   	pop    rbp
  402fa9:	41 5c                	pop    r12
  402fab:	41 5d                	pop    r13
  402fad:	41 5e                	pop    r14
  402faf:	41 5f                	pop    r15
  402fb1:	c3                   	ret    
  402fb2:	e8 19 d7 ff ff       	call   4006d0 <__stack_chk_fail@plt>
  402fb7:	66 0f 1f 84 00 00 00 	nop    WORD PTR [rax+rax*1+0x0]
  402fbe:	00 00 

0000000000402fc0 <create_trace_file>:
  402fc0:	be af 31 40 00       	mov    esi,0x4031af
  402fc5:	e9 76 d7 ff ff       	jmp    400740 <fopen@plt>
  402fca:	66 0f 1f 44 00 00    	nop    WORD PTR [rax+rax*1+0x0]

0000000000402fd0 <dump_state>:
  402fd0:	48 85 f6             	test   rsi,rsi
  402fd3:	74 0b                	je     402fe0 <dump_state+0x10>
  402fd5:	f3 c3                	repz ret 
  402fd7:	66 0f 1f 84 00 00 00 	nop    WORD PTR [rax+rax*1+0x0]
  402fde:	00 00 
  402fe0:	ba be 31 40 00       	mov    edx,0x4031be
  402fe5:	be 01 00 00 00       	mov    esi,0x1
  402fea:	31 c0                	xor    eax,eax
  402fec:	e9 5f d7 ff ff       	jmp    400750 <__fprintf_chk@plt>
  402ff1:	0f 1f 44 00 00       	nop    DWORD PTR [rax+rax*1+0x0]
  402ff6:	66 2e 0f 1f 84 00 00 	nop    WORD PTR cs:[rax+rax*1+0x0]
  402ffd:	00 00 00 

0000000000403000 <populate_tests>:
  403000:	41 55                	push   r13
  403002:	41 54                	push   r12
  403004:	48 89 fa             	mov    rdx,rdi
  403007:	55                   	push   rbp
  403008:	53                   	push   rbx
  403009:	49 89 fc             	mov    r12,rdi
  40300c:	48 89 f3             	mov    rbx,rsi
  40300f:	31 ed                	xor    ebp,ebp
  403011:	48 81 ec f8 03 00 00 	sub    rsp,0x3f8
  403018:	48 c7 46 08 00 00 00 	mov    QWORD PTR [rsi+0x8],0x0
  40301f:	00 
  403020:	48 c7 06 00 00 00 00 	mov    QWORD PTR [rsi],0x0
  403027:	48 89 e7             	mov    rdi,rsp
  40302a:	be e7 03 00 00       	mov    esi,0x3e7
  40302f:	64 48 8b 04 25 28 00 	mov    rax,QWORD PTR fs:0x28
  403036:	00 00 
  403038:	48 89 84 24 e8 03 00 	mov    QWORD PTR [rsp+0x3e8],rax
  40303f:	00 
  403040:	31 c0                	xor    eax,eax
  403042:	e8 a9 d6 ff ff       	call   4006f0 <fgets@plt>
  403047:	66 0f 1f 84 00 00 00 	nop    WORD PTR [rax+rax*1+0x0]
  40304e:	00 00 
  403050:	4c 89 e2             	mov    rdx,r12
  403053:	be e7 03 00 00       	mov    esi,0x3e7
  403058:	48 89 e7             	mov    rdi,rsp
  40305b:	e8 90 d6 ff ff       	call   4006f0 <fgets@plt>
  403060:	48 85 c0             	test   rax,rax
  403063:	74 6b                	je     4030d0 <populate_tests+0xd0>
  403065:	80 3c 24 0a          	cmp    BYTE PTR [rsp],0xa
  403069:	74 35                	je     4030a0 <populate_tests+0xa0>
  40306b:	bf 58 00 00 00       	mov    edi,0x58
  403070:	e8 9b d6 ff ff       	call   400710 <malloc@plt>
  403075:	48 85 c0             	test   rax,rax
  403078:	49 89 c5             	mov    r13,rax
  40307b:	74 7b                	je     4030f8 <populate_tests+0xf8>
  40307d:	48 c7 40 50 00 00 00 	mov    QWORD PTR [rax+0x50],0x0
  403084:	00 
  403085:	48 89 c6             	mov    rsi,rax
  403088:	48 89 e7             	mov    rdi,rsp
  40308b:	e8 40 fd ff ff       	call   402dd0 <scan_input>
  403090:	48 85 ed             	test   rbp,rbp
  403093:	74 7b                	je     403110 <populate_tests+0x110>
  403095:	4c 89 6d 50          	mov    QWORD PTR [rbp+0x50],r13
  403099:	4c 89 ed             	mov    rbp,r13
  40309c:	eb b2                	jmp    403050 <populate_tests+0x50>
  40309e:	66 90                	xchg   ax,ax
  4030a0:	80 7c 24 01 00       	cmp    BYTE PTR [rsp+0x1],0x0
  4030a5:	75 c4                	jne    40306b <populate_tests+0x6b>
  4030a7:	bf 10 00 00 00       	mov    edi,0x10
  4030ac:	e8 5f d6 ff ff       	call   400710 <malloc@plt>
  4030b1:	48 85 c0             	test   rax,rax
  4030b4:	74 42                	je     4030f8 <populate_tests+0xf8>
  4030b6:	48 c7 00 00 00 00 00 	mov    QWORD PTR [rax],0x0
  4030bd:	48 c7 40 08 00 00 00 	mov    QWORD PTR [rax+0x8],0x0
  4030c4:	00 
  4030c5:	31 ed                	xor    ebp,ebp
  4030c7:	48 89 43 08          	mov    QWORD PTR [rbx+0x8],rax
  4030cb:	48 89 c3             	mov    rbx,rax
  4030ce:	eb 80                	jmp    403050 <populate_tests+0x50>
  4030d0:	48 8b 84 24 e8 03 00 	mov    rax,QWORD PTR [rsp+0x3e8]
  4030d7:	00 
  4030d8:	64 48 33 04 25 28 00 	xor    rax,QWORD PTR fs:0x28
  4030df:	00 00 
  4030e1:	75 38                	jne    40311b <populate_tests+0x11b>
  4030e3:	48 81 c4 f8 03 00 00 	add    rsp,0x3f8
  4030ea:	5b                   	pop    rbx
  4030eb:	5d                   	pop    rbp
  4030ec:	41 5c                	pop    r12
  4030ee:	41 5d                	pop    r13
  4030f0:	c3                   	ret    
  4030f1:	0f 1f 80 00 00 00 00 	nop    DWORD PTR [rax+0x0]
  4030f8:	be b1 31 40 00       	mov    esi,0x4031b1
  4030fd:	bf 01 00 00 00       	mov    edi,0x1
  403102:	31 c0                	xor    eax,eax
  403104:	e8 27 d6 ff ff       	call   400730 <__printf_chk@plt>
  403109:	e9 42 ff ff ff       	jmp    403050 <populate_tests+0x50>
  40310e:	66 90                	xchg   ax,ax
  403110:	4c 89 2b             	mov    QWORD PTR [rbx],r13
  403113:	4c 89 ed             	mov    rbp,r13
  403116:	e9 35 ff ff ff       	jmp    403050 <populate_tests+0x50>
  40311b:	e8 b0 d5 ff ff       	call   4006d0 <__stack_chk_fail@plt>

0000000000403120 <__libc_csu_init>:
  403120:	41 57                	push   r15
  403122:	41 56                	push   r14
  403124:	41 89 ff             	mov    r15d,edi
  403127:	41 55                	push   r13
  403129:	41 54                	push   r12
  40312b:	4c 8d 25 de 0c 20 00 	lea    r12,[rip+0x200cde]        # 603e10 <__frame_dummy_init_array_entry>
  403132:	55                   	push   rbp
  403133:	48 8d 2d de 0c 20 00 	lea    rbp,[rip+0x200cde]        # 603e18 <__init_array_end>
  40313a:	53                   	push   rbx
  40313b:	49 89 f6             	mov    r14,rsi
  40313e:	49 89 d5             	mov    r13,rdx
  403141:	4c 29 e5             	sub    rbp,r12
  403144:	48 83 ec 08          	sub    rsp,0x8
  403148:	48 c1 fd 03          	sar    rbp,0x3
  40314c:	e8 1f d5 ff ff       	call   400670 <_init>
  403151:	48 85 ed             	test   rbp,rbp
  403154:	74 20                	je     403176 <__libc_csu_init+0x56>
  403156:	31 db                	xor    ebx,ebx
  403158:	0f 1f 84 00 00 00 00 	nop    DWORD PTR [rax+rax*1+0x0]
  40315f:	00 
  403160:	4c 89 ea             	mov    rdx,r13
  403163:	4c 89 f6             	mov    rsi,r14
  403166:	44 89 ff             	mov    edi,r15d
  403169:	41 ff 14 dc          	call   QWORD PTR [r12+rbx*8]
  40316d:	48 83 c3 01          	add    rbx,0x1
  403171:	48 39 eb             	cmp    rbx,rbp
  403174:	75 ea                	jne    403160 <__libc_csu_init+0x40>
  403176:	48 83 c4 08          	add    rsp,0x8
  40317a:	5b                   	pop    rbx
  40317b:	5d                   	pop    rbp
  40317c:	41 5c                	pop    r12
  40317e:	41 5d                	pop    r13
  403180:	41 5e                	pop    r14
  403182:	41 5f                	pop    r15
  403184:	c3                   	ret    
  403185:	90                   	nop
  403186:	66 2e 0f 1f 84 00 00 	nop    WORD PTR cs:[rax+rax*1+0x0]
  40318d:	00 00 00 

0000000000403190 <__libc_csu_fini>:
  403190:	f3 c3                	repz ret 

Disassembly of section .fini:

0000000000403194 <_fini>:
  403194:	48 83 ec 08          	sub    rsp,0x8
  403198:	48 83 c4 08          	add    rsp,0x8
  40319c:	c3                   	ret    
